
C:\Users\Rockthesmurf\Documents\GitHub\apkenv\libs\pandora\system\lib\libGLESv2.so:     file format elf32-littlearm


Disassembly of section .hash:

000000f4 <.hash>:
  f4:	000000c5 	andeq	r0, r0, r5, asr #1
  f8:	000000dc 	ldrdeq	r0, [r0], -ip
  fc:	00000000 	andeq	r0, r0, r0
 100:	000000a4 	andeq	r0, r0, r4, lsr #1
 104:	000000d3 	ldrdeq	r0, [r0], -r3
	...
 110:	000000db 	ldrdeq	r0, [r0], -fp
 114:	0000008d 	andeq	r0, r0, sp, lsl #1
	...
 128:	0000003d 	andeq	r0, r0, sp, lsr r0
 12c:	00000000 	andeq	r0, r0, r0
 130:	00000091 	muleq	r0, r1, r0
 134:	00000071 	andeq	r0, r0, r1, ror r0
	...
 140:	000000d7 	ldrdeq	r0, [r0], -r7
 144:	00000005 	andeq	r0, r0, r5
 148:	00000000 	andeq	r0, r0, r0
 14c:	0000006f 	andeq	r0, r0, pc, rrx
 150:	00000064 	andeq	r0, r0, r4, rrx
 154:	0000000b 	andeq	r0, r0, fp
 158:	000000a5 	andeq	r0, r0, r5, lsr #1
 15c:	00000000 	andeq	r0, r0, r0
 160:	0000005a 	andeq	r0, r0, sl, asr r0
	...
 170:	000000c2 	andeq	r0, r0, r2, asr #1
 174:	0000005b 	andeq	r0, r0, fp, asr r0
 178:	00000007 	andeq	r0, r0, r7
 17c:	000000b8 	strheq	r0, [r0], -r8
	...
 188:	00000090 	muleq	r0, r0, r0
 18c:	0000009c 	muleq	r0, ip, r0
 190:	00000067 	andeq	r0, r0, r7, rrx
 194:	00000000 	andeq	r0, r0, r0
 198:	000000d0 	ldrdeq	r0, [r0], r0
 19c:	00000000 	andeq	r0, r0, r0
 1a0:	000000c8 	andeq	r0, r0, r8, asr #1
 1a4:	000000bc 	strheq	r0, [r0], -ip
 1a8:	0000007e 	andeq	r0, r0, lr, ror r0
 1ac:	0000005d 	andeq	r0, r0, sp, asr r0
 1b0:	000000c3 	andeq	r0, r0, r3, asr #1
 1b4:	00000031 	andeq	r0, r0, r1, lsr r0
 1b8:	00000000 	andeq	r0, r0, r0
 1bc:	00000068 	andeq	r0, r0, r8, rrx
 1c0:	00000000 	andeq	r0, r0, r0
 1c4:	000000a9 	andeq	r0, r0, r9, lsr #1
 1c8:	0000004b 	andeq	r0, r0, fp, asr #32
 1cc:	000000c4 	andeq	r0, r0, r4, asr #1
 1d0:	00000000 	andeq	r0, r0, r0
 1d4:	000000bd 	strheq	r0, [r0], -sp
 1d8:	00000074 	andeq	r0, r0, r4, ror r0
 1dc:	00000000 	andeq	r0, r0, r0
 1e0:	000000d5 	ldrdeq	r0, [r0], -r5
 1e4:	0000006b 	andeq	r0, r0, fp, rrx
 1e8:	000000a7 	andeq	r0, r0, r7, lsr #1
 1ec:	000000d4 	ldrdeq	r0, [r0], -r4
 1f0:	000000ce 	andeq	r0, r0, lr, asr #1
 1f4:	000000d8 	ldrdeq	r0, [r0], -r8
 1f8:	000000b0 	strheq	r0, [r0], r0
	...
 204:	00000021 	andeq	r0, r0, r1, lsr #32
 208:	00000033 	andeq	r0, r0, r3, lsr r0
 20c:	00000051 	andeq	r0, r0, r1, asr r0
 210:	00000004 	andeq	r0, r0, r4
 214:	00000041 	andeq	r0, r0, r1, asr #32
 218:	000000cd 	andeq	r0, r0, sp, asr #1
 21c:	000000ba 	strheq	r0, [r0], -sl
 220:	000000ca 	andeq	r0, r0, sl, asr #1
 224:	00000000 	andeq	r0, r0, r0
 228:	00000054 	andeq	r0, r0, r4, asr r0
 22c:	00000000 	andeq	r0, r0, r0
 230:	00000096 	muleq	r0, r6, r0
 234:	00000000 	andeq	r0, r0, r0
 238:	0000002f 	andeq	r0, r0, pc, lsr #32
	...
 244:	00000082 	andeq	r0, r0, r2, lsl #1
	...
 250:	0000009f 	muleq	r0, pc, r0
 254:	000000aa 	andeq	r0, r0, sl, lsr #1
 258:	0000003a 	andeq	r0, r0, sl, lsr r0
 25c:	000000b3 	strheq	r0, [r0], -r3
 260:	00000022 	andeq	r0, r0, r2, lsr #32
 264:	00000000 	andeq	r0, r0, r0
 268:	000000a0 	andeq	r0, r0, r0, lsr #1
 26c:	00000000 	andeq	r0, r0, r0
 270:	000000b4 	strheq	r0, [r0], -r4
 274:	00000000 	andeq	r0, r0, r0
 278:	00000062 	andeq	r0, r0, r2, rrx
 27c:	000000c6 	andeq	r0, r0, r6, asr #1
 280:	000000be 	strheq	r0, [r0], -lr
 284:	00000070 	andeq	r0, r0, r0, ror r0
 288:	000000c7 	andeq	r0, r0, r7, asr #1
 28c:	00000009 	andeq	r0, r0, r9
 290:	0000005f 	andeq	r0, r0, pc, asr r0
 294:	00000058 	andeq	r0, r0, r8, asr r0
 298:	000000bf 	strheq	r0, [r0], -pc
 29c:	0000001d 	andeq	r0, r0, sp, lsl r0
 2a0:	00000000 	andeq	r0, r0, r0
 2a4:	0000009b 	muleq	r0, fp, r0
 2a8:	000000c1 	andeq	r0, r0, r1, asr #1
 2ac:	00000088 	andeq	r0, r0, r8, lsl #1
 2b0:	000000d6 	ldrdeq	r0, [r0], -r6
 2b4:	0000000e 	andeq	r0, r0, lr
 2b8:	0000004e 	andeq	r0, r0, lr, asr #32
 2bc:	00000000 	andeq	r0, r0, r0
 2c0:	00000080 	andeq	r0, r0, r0, lsl #1
 2c4:	00000000 	andeq	r0, r0, r0
 2c8:	000000c0 	andeq	r0, r0, r0, asr #1
 2cc:	000000d1 	ldrdeq	r0, [r0], -r1
 2d0:	00000052 	andeq	r0, r0, r2, asr r0
 2d4:	00000061 	andeq	r0, r0, r1, rrx
 2d8:	00000000 	andeq	r0, r0, r0
 2dc:	00000093 	muleq	r0, r3, r0
 2e0:	00000000 	andeq	r0, r0, r0
 2e4:	000000b2 	strheq	r0, [r0], -r2
 2e8:	000000d2 	ldrdeq	r0, [r0], -r2
 2ec:	0000008a 	andeq	r0, r0, sl, lsl #1
 2f0:	00000060 	andeq	r0, r0, r0, rrx
	...
 2fc:	000000b6 	strheq	r0, [r0], -r6
 300:	0000008f 	andeq	r0, r0, pc, lsl #1
 304:	00000000 	andeq	r0, r0, r0
 308:	000000ae 	andeq	r0, r0, lr, lsr #1
 30c:	00000000 	andeq	r0, r0, r0
 310:	00000069 	andeq	r0, r0, r9, rrx
 314:	00000000 	andeq	r0, r0, r0
 318:	00000065 	andeq	r0, r0, r5, rrx
 31c:	000000cf 	andeq	r0, r0, pc, asr #1
 320:	00000006 	andeq	r0, r0, r6
 324:	00000000 	andeq	r0, r0, r0
 328:	000000cb 	andeq	r0, r0, fp, asr #1
 32c:	000000d9 	ldrdeq	r0, [r0], -r9
 330:	00000081 	andeq	r0, r0, r1, lsl #1
 334:	00000000 	andeq	r0, r0, r0
 338:	000000b5 	strheq	r0, [r0], -r5
 33c:	0000008b 	andeq	r0, r0, fp, lsl #1
 340:	00000087 	andeq	r0, r0, r7, lsl #1
 344:	00000000 	andeq	r0, r0, r0
 348:	000000ad 	andeq	r0, r0, sp, lsr #1
 34c:	00000000 	andeq	r0, r0, r0
 350:	000000a1 	andeq	r0, r0, r1, lsr #1
	...
 364:	00000013 	andeq	r0, r0, r3, lsl r0
 368:	00000000 	andeq	r0, r0, r0
 36c:	0000002b 	andeq	r0, r0, fp, lsr #32
 370:	00000038 	andeq	r0, r0, r8, lsr r0
 374:	00000075 	andeq	r0, r0, r5, ror r0
 378:	0000008e 	andeq	r0, r0, lr, lsl #1
 37c:	000000a2 	andeq	r0, r0, r2, lsr #1
 380:	00000086 	andeq	r0, r0, r6, lsl #1
 384:	00000000 	andeq	r0, r0, r0
 388:	00000097 	muleq	r0, r7, r0
 38c:	0000000a 	andeq	r0, r0, sl
 390:	000000c5 	andeq	r0, r0, r5, asr #1
 394:	00000000 	andeq	r0, r0, r0
 398:	000000b7 	strheq	r0, [r0], -r7
	...
 3a4:	000000af 	andeq	r0, r0, pc, lsr #1
 3a8:	0000001a 	andeq	r0, r0, sl, lsl r0
 3ac:	000000b1 	strheq	r0, [r0], -r1
 3b0:	00000015 	andeq	r0, r0, r5, lsl r0
 3b4:	00000079 	andeq	r0, r0, r9, ror r0
	...
 3c0:	0000007b 	andeq	r0, r0, fp, ror r0
 3c4:	000000ac 	andeq	r0, r0, ip, lsr #1
 3c8:	0000006d 	andeq	r0, r0, sp, rrx
 3cc:	00000000 	andeq	r0, r0, r0
 3d0:	000000da 	ldrdeq	r0, [r0], -sl
 3d4:	00000072 	andeq	r0, r0, r2, ror r0
 3d8:	00000057 	andeq	r0, r0, r7, asr r0
 3dc:	0000006a 	andeq	r0, r0, sl, rrx
 3e0:	00000000 	andeq	r0, r0, r0
 3e4:	00000036 	andeq	r0, r0, r6, lsr r0
 3e8:	0000003c 	andeq	r0, r0, ip, lsr r0
 3ec:	00000000 	andeq	r0, r0, r0
 3f0:	000000a6 	andeq	r0, r0, r6, lsr #1
 3f4:	0000009a 	muleq	r0, sl, r0
 3f8:	0000006c 	andeq	r0, r0, ip, rrx
 3fc:	00000078 	andeq	r0, r0, r8, ror r0
 400:	0000007f 	andeq	r0, r0, pc, ror r0
 404:	000000cc 	andeq	r0, r0, ip, asr #1
	...
 450:	00000002 	andeq	r0, r0, r2
	...
 460:	0000000c 	andeq	r0, r0, ip
 464:	00000000 	andeq	r0, r0, r0
 468:	00000010 	andeq	r0, r0, r0, lsl r0
	...
 474:	00000001 	andeq	r0, r0, r1
	...
 488:	00000011 	andeq	r0, r0, r1, lsl r0
	...
 49c:	00000012 	andeq	r0, r0, r2, lsl r0
	...
 4e0:	00000028 	andeq	r0, r0, r8, lsr #32
	...
 4f8:	00000029 	andeq	r0, r0, r9, lsr #32
	...
 514:	0000000f 	andeq	r0, r0, pc
 518:	00000000 	andeq	r0, r0, r0
 51c:	00000037 	andeq	r0, r0, r7, lsr r0
 520:	00000035 	andeq	r0, r0, r5, lsr r0
 524:	00000040 	andeq	r0, r0, r0, asr #32
	...
 53c:	0000002d 	andeq	r0, r0, sp, lsr #32
	...
 550:	00000014 	andeq	r0, r0, r4, lsl r0
 554:	00000000 	andeq	r0, r0, r0
 558:	00000018 	andeq	r0, r0, r8, lsl r0
	...
 564:	00000008 	andeq	r0, r0, r8
 568:	00000000 	andeq	r0, r0, r0
 56c:	0000001f 	andeq	r0, r0, pc, lsl r0
 570:	00000000 	andeq	r0, r0, r0
 574:	0000001b 	andeq	r0, r0, fp, lsl r0
	...
 594:	00000016 	andeq	r0, r0, r6, lsl r0
 598:	00000044 	andeq	r0, r0, r4, asr #32
 59c:	0000005c 	andeq	r0, r0, ip, asr r0
 5a0:	00000020 	andeq	r0, r0, r0, lsr #32
	...
 5ac:	0000001e 	andeq	r0, r0, lr, lsl r0
 5b0:	00000000 	andeq	r0, r0, r0
 5b4:	00000026 	andeq	r0, r0, r6, lsr #32
	...
 5c0:	00000034 	andeq	r0, r0, r4, lsr r0
	...
 5cc:	00000066 	andeq	r0, r0, r6, rrx
	...
 5d8:	00000027 	andeq	r0, r0, r7, lsr #32
 5dc:	00000000 	andeq	r0, r0, r0
 5e0:	00000024 	andeq	r0, r0, r4, lsr #32
 5e4:	00000039 	andeq	r0, r0, r9, lsr r0
	...
 5f4:	00000042 	andeq	r0, r0, r2, asr #32
	...
 604:	00000023 	andeq	r0, r0, r3, lsr #32
	...
 614:	00000049 	andeq	r0, r0, r9, asr #32
 618:	0000000d 	andeq	r0, r0, sp
	...
 624:	0000006e 	andeq	r0, r0, lr, rrx
 628:	00000077 	andeq	r0, r0, r7, ror r0
 62c:	0000002e 	andeq	r0, r0, lr, lsr #32
	...
 654:	0000004a 	andeq	r0, r0, sl, asr #32
 658:	0000002a 	andeq	r0, r0, sl, lsr #32
 65c:	00000019 	andeq	r0, r0, r9, lsl r0
 660:	00000000 	andeq	r0, r0, r0
 664:	0000005e 	andeq	r0, r0, lr, asr r0
 668:	00000053 	andeq	r0, r0, r3, asr r0
 66c:	00000025 	andeq	r0, r0, r5, lsr #32
 670:	00000055 	andeq	r0, r0, r5, asr r0
 674:	00000017 	andeq	r0, r0, r7, lsl r0
 678:	0000007d 	andeq	r0, r0, sp, ror r0
	...
 688:	00000099 	muleq	r0, r9, r0
 68c:	00000089 	andeq	r0, r0, r9, lsl #1
 690:	00000094 	muleq	r0, r4, r0
 694:	0000004d 	andeq	r0, r0, sp, asr #32
 698:	00000000 	andeq	r0, r0, r0
 69c:	00000083 	andeq	r0, r0, r3, lsl #1
 6a0:	0000003e 	andeq	r0, r0, lr, lsr r0
 6a4:	000000a3 	andeq	r0, r0, r3, lsr #1
 6a8:	0000003f 	andeq	r0, r0, pc, lsr r0
 6ac:	0000003b 	andeq	r0, r0, fp, lsr r0
 6b0:	00000000 	andeq	r0, r0, r0
 6b4:	0000009e 	muleq	r0, lr, r0
	...
 6c0:	00000032 	andeq	r0, r0, r2, lsr r0
 6c4:	00000059 	andeq	r0, r0, r9, asr r0
	...
 6d4:	0000001c 	andeq	r0, r0, ip, lsl r0
 6d8:	00000076 	andeq	r0, r0, r6, ror r0
 6dc:	00000000 	andeq	r0, r0, r0
 6e0:	00000056 	andeq	r0, r0, r6, asr r0
	...
 6f0:	00000046 	andeq	r0, r0, r6, asr #32
 6f4:	00000098 	muleq	r0, r8, r0
 6f8:	0000002c 	andeq	r0, r0, ip, lsr #32
 6fc:	00000000 	andeq	r0, r0, r0
 700:	0000004c 	andeq	r0, r0, ip, asr #32
 704:	0000007c 	andeq	r0, r0, ip, ror r0
 708:	00000003 	andeq	r0, r0, r3
 70c:	00000000 	andeq	r0, r0, r0
 710:	00000045 	andeq	r0, r0, r5, asr #32
 714:	00000095 	muleq	r0, r5, r0
	...
 720:	00000084 	andeq	r0, r0, r4, lsl #1
 724:	00000047 	andeq	r0, r0, r7, asr #32
 728:	00000048 	andeq	r0, r0, r8, asr #32
 72c:	000000b9 	strheq	r0, [r0], -r9
 730:	00000043 	andeq	r0, r0, r3, asr #32
 734:	00000050 	andeq	r0, r0, r0, asr r0
	...
 740:	00000085 	andeq	r0, r0, r5, lsl #1
 744:	00000000 	andeq	r0, r0, r0
 748:	0000004f 	andeq	r0, r0, pc, asr #32
	...
 754:	0000009d 	muleq	r0, sp, r0
 758:	00000092 	muleq	r0, r2, r0
 75c:	000000ab 	andeq	r0, r0, fp, lsr #1
 760:	00000063 	andeq	r0, r0, r3, rrx
 764:	00000030 	andeq	r0, r0, r0, lsr r0
 768:	000000c9 	andeq	r0, r0, r9, asr #1
 76c:	00000073 	andeq	r0, r0, r3, ror r0
 770:	000000bb 	strheq	r0, [r0], -fp
 774:	0000008c 	andeq	r0, r0, ip, lsl #1
 778:	0000007a 	andeq	r0, r0, sl, ror r0
 77c:	000000a8 	andeq	r0, r0, r8, lsr #1

Disassembly of section .dynsym:

00000780 <.dynsym>:
	...
     790:	00000001 	andeq	r0, r0, r1
     794:	00002574 	andeq	r2, r0, r4, ror r5
     798:	00000018 	andeq	r0, r0, r8, lsl r0
     79c:	00060012 	andeq	r0, r6, r2, lsl r0
     7a0:	00000011 	andeq	r0, r0, r1, lsl r0
	...
     7ac:	00000012 	andeq	r0, r0, r2, lsl r0
     7b0:	00000028 	andeq	r0, r0, r8, lsr #32
     7b4:	0000258c 	andeq	r2, r0, ip, lsl #11
     7b8:	00000018 	andeq	r0, r0, r8, lsl r0
     7bc:	00060012 	andeq	r0, r6, r2, lsl r0
     7c0:	00000037 	andeq	r0, r0, r7, lsr r0
     7c4:	000025a4 	andeq	r2, r0, r4, lsr #11
     7c8:	00000018 	andeq	r0, r0, r8, lsl r0
     7cc:	00060012 	andeq	r0, r6, r2, lsl r0
     7d0:	0000004c 	andeq	r0, r0, ip, asr #32
     7d4:	000025bc 	strheq	r2, [r0], -ip
     7d8:	00000018 	andeq	r0, r0, r8, lsl r0
     7dc:	00060012 	andeq	r0, r6, r2, lsl r0
     7e0:	00000059 	andeq	r0, r0, r9, asr r0
     7e4:	000025d4 	ldrdeq	r2, [r0], -r4
     7e8:	00000018 	andeq	r0, r0, r8, lsl r0
     7ec:	00060012 	andeq	r0, r6, r2, lsl r0
     7f0:	0000006b 	andeq	r0, r0, fp, rrx
     7f4:	000025ec 	andeq	r2, r0, ip, ror #11
     7f8:	00000018 	andeq	r0, r0, r8, lsl r0
     7fc:	00060012 	andeq	r0, r6, r2, lsl r0
     800:	0000007e 	andeq	r0, r0, lr, ror r0
     804:	00002604 	andeq	r2, r0, r4, lsl #12
     808:	00000018 	andeq	r0, r0, r8, lsl r0
     80c:	00060012 	andeq	r0, r6, r2, lsl r0
     810:	0000008c 	andeq	r0, r0, ip, lsl #1
     814:	0000261c 	andeq	r2, r0, ip, lsl r6
     818:	00000018 	andeq	r0, r0, r8, lsl r0
     81c:	00060012 	andeq	r0, r6, r2, lsl r0
     820:	00000099 	muleq	r0, r9, r0
     824:	00002634 	andeq	r2, r0, r4, lsr r6
     828:	00000018 	andeq	r0, r0, r8, lsl r0
     82c:	00060012 	andeq	r0, r6, r2, lsl r0
     830:	000000a9 	andeq	r0, r0, r9, lsr #1
     834:	0000264c 	andeq	r2, r0, ip, asr #12
     838:	00000018 	andeq	r0, r0, r8, lsl r0
     83c:	00060012 	andeq	r0, r6, r2, lsl r0
     840:	000000c1 	andeq	r0, r0, r1, asr #1
     844:	00002664 	andeq	r2, r0, r4, ror #12
     848:	00000018 	andeq	r0, r0, r8, lsl r0
     84c:	00060012 	andeq	r0, r6, r2, lsl r0
     850:	000000cd 	andeq	r0, r0, sp, asr #1
     854:	0000267c 	andeq	r2, r0, ip, ror r6
     858:	00000018 	andeq	r0, r0, r8, lsl r0
     85c:	00060012 	andeq	r0, r6, r2, lsl r0
     860:	000000e1 	andeq	r0, r0, r1, ror #1
     864:	00002694 	muleq	r0, r4, r6
     868:	00000018 	andeq	r0, r0, r8, lsl r0
     86c:	00060012 	andeq	r0, r6, r2, lsl r0
     870:	000000ee 	andeq	r0, r0, lr, ror #1
     874:	000026ac 	andeq	r2, r0, ip, lsr #13
     878:	00000018 	andeq	r0, r0, r8, lsl r0
     87c:	00060012 	andeq	r0, r6, r2, lsl r0
     880:	000000fe 	strdeq	r0, [r0], -lr
     884:	000026c4 	andeq	r2, r0, r4, asr #13
     888:	0000001c 	andeq	r0, r0, ip, lsl r0
     88c:	00060012 	andeq	r0, r6, r2, lsl r0
     890:	00000117 	andeq	r0, r0, r7, lsl r1
     894:	000026e0 	andeq	r2, r0, r0, ror #13
     898:	00000018 	andeq	r0, r0, r8, lsl r0
     89c:	00060012 	andeq	r0, r6, r2, lsl r0
     8a0:	0000011f 	andeq	r0, r0, pc, lsl r1
     8a4:	000026f8 	strdeq	r2, [r0], -r8
     8a8:	00000018 	andeq	r0, r0, r8, lsl r0
     8ac:	00060012 	andeq	r0, r6, r2, lsl r0
     8b0:	0000012c 	andeq	r0, r0, ip, lsr #2
     8b4:	00002710 	andeq	r2, r0, r0, lsl r7
     8b8:	00000018 	andeq	r0, r0, r8, lsl r0
     8bc:	00060012 	andeq	r0, r6, r2, lsl r0
     8c0:	0000013a 	andeq	r0, r0, sl, lsr r1
     8c4:	00002728 	andeq	r2, r0, r8, lsr #14
     8c8:	00000018 	andeq	r0, r0, r8, lsl r0
     8cc:	00060012 	andeq	r0, r6, r2, lsl r0
     8d0:	00000149 	andeq	r0, r0, r9, asr #2
     8d4:	00002740 	andeq	r2, r0, r0, asr #14
     8d8:	00000018 	andeq	r0, r0, r8, lsl r0
     8dc:	00060012 	andeq	r0, r6, r2, lsl r0
     8e0:	00000155 	andeq	r0, r0, r5, asr r1
     8e4:	00002758 	andeq	r2, r0, r8, asr r7
     8e8:	00000018 	andeq	r0, r0, r8, lsl r0
     8ec:	00060012 	andeq	r0, r6, r2, lsl r0
     8f0:	00000165 	andeq	r0, r0, r5, ror #2
     8f4:	00002770 	andeq	r2, r0, r0, ror r7
     8f8:	00000018 	andeq	r0, r0, r8, lsl r0
     8fc:	00060012 	andeq	r0, r6, r2, lsl r0
     900:	0000017c 	andeq	r0, r0, ip, ror r1
     904:	00002788 	andeq	r2, r0, r8, lsl #15
     908:	00000018 	andeq	r0, r0, r8, lsl r0
     90c:	00060012 	andeq	r0, r6, r2, lsl r0
     910:	00000196 	muleq	r0, r6, r1
     914:	000027a0 	andeq	r2, r0, r0, lsr #15
     918:	00000018 	andeq	r0, r0, r8, lsl r0
     91c:	00060012 	andeq	r0, r6, r2, lsl r0
     920:	000001a7 	andeq	r0, r0, r7, lsr #3
     924:	000027b8 	strheq	r2, [r0], -r8
     928:	00000018 	andeq	r0, r0, r8, lsl r0
     92c:	00060012 	andeq	r0, r6, r2, lsl r0
     930:	000001bb 	strheq	r0, [r0], -fp
     934:	000027d0 	ldrdeq	r2, [r0], -r0
     938:	0000001c 	andeq	r0, r0, ip, lsl r0
     93c:	00060012 	andeq	r0, r6, r2, lsl r0
     940:	000001cb 	andeq	r0, r0, fp, asr #3
     944:	000027ec 	andeq	r2, r0, ip, ror #15
     948:	0000001c 	andeq	r0, r0, ip, lsl r0
     94c:	00060012 	andeq	r0, r6, r2, lsl r0
     950:	000001da 	ldrdeq	r0, [r0], -sl
     954:	00002808 	andeq	r2, r0, r8, lsl #16
     958:	00000018 	andeq	r0, r0, r8, lsl r0
     95c:	00060012 	andeq	r0, r6, r2, lsl r0
     960:	000001e5 	andeq	r0, r0, r5, ror #3
     964:	00002820 	andeq	r2, r0, r0, lsr #16
     968:	00000018 	andeq	r0, r0, r8, lsl r0
     96c:	00060012 	andeq	r0, r6, r2, lsl r0
     970:	000001f5 	strdeq	r0, [r0], -r5
     974:	00002838 	andeq	r2, r0, r8, lsr r8
     978:	00000018 	andeq	r0, r0, r8, lsl r0
     97c:	00060012 	andeq	r0, r6, r2, lsl r0
     980:	0000020a 	andeq	r0, r0, sl, lsl #4
     984:	00002850 	andeq	r2, r0, r0, asr r8
     988:	00000018 	andeq	r0, r0, r8, lsl r0
     98c:	00060012 	andeq	r0, r6, r2, lsl r0
     990:	0000021a 	andeq	r0, r0, sl, lsl r2
     994:	00002868 	andeq	r2, r0, r8, ror #16
     998:	00000018 	andeq	r0, r0, r8, lsl r0
     99c:	00060012 	andeq	r0, r6, r2, lsl r0
     9a0:	00000230 	andeq	r0, r0, r0, lsr r2
     9a4:	00002880 	andeq	r2, r0, r0, lsl #17
     9a8:	00000018 	andeq	r0, r0, r8, lsl r0
     9ac:	00060012 	andeq	r0, r6, r2, lsl r0
     9b0:	0000023f 	andeq	r0, r0, pc, lsr r2
     9b4:	00002898 	muleq	r0, r8, r8
     9b8:	00000018 	andeq	r0, r0, r8, lsl r0
     9bc:	00060012 	andeq	r0, r6, r2, lsl r0
     9c0:	00000250 	andeq	r0, r0, r0, asr r2
     9c4:	000028b0 	strheq	r2, [r0], -r0
     9c8:	00000018 	andeq	r0, r0, r8, lsl r0
     9cc:	00060012 	andeq	r0, r6, r2, lsl r0
     9d0:	0000025c 	andeq	r0, r0, ip, asr r2
     9d4:	000028c8 	andeq	r2, r0, r8, asr #17
     9d8:	00000018 	andeq	r0, r0, r8, lsl r0
     9dc:	00060012 	andeq	r0, r6, r2, lsl r0
     9e0:	00000268 	andeq	r0, r0, r8, ror #4
     9e4:	000028e0 	andeq	r2, r0, r0, ror #17
     9e8:	00000018 	andeq	r0, r0, r8, lsl r0
     9ec:	00060012 	andeq	r0, r6, r2, lsl r0
     9f0:	00000276 	andeq	r0, r0, r6, ror r2
     9f4:	000028f8 	strdeq	r2, [r0], -r8
     9f8:	00000018 	andeq	r0, r0, r8, lsl r0
     9fc:	00060012 	andeq	r0, r6, r2, lsl r0
     a00:	00000285 	andeq	r0, r0, r5, lsl #5
     a04:	00002910 	andeq	r2, r0, r0, lsl r9
     a08:	00000018 	andeq	r0, r0, r8, lsl r0
     a0c:	00060012 	andeq	r0, r6, r2, lsl r0
     a10:	0000028f 	andeq	r0, r0, pc, lsl #5
     a14:	00002928 	andeq	r2, r0, r8, lsr #18
     a18:	00000018 	andeq	r0, r0, r8, lsl r0
     a1c:	00060012 	andeq	r0, r6, r2, lsl r0
     a20:	000002aa 	andeq	r0, r0, sl, lsr #5
     a24:	00002940 	andeq	r2, r0, r0, asr #18
     a28:	00000018 	andeq	r0, r0, r8, lsl r0
     a2c:	00060012 	andeq	r0, r6, r2, lsl r0
     a30:	000002b7 	strheq	r0, [r0], -r7
     a34:	00002958 	andeq	r2, r0, r8, asr r9
     a38:	00000018 	andeq	r0, r0, r8, lsl r0
     a3c:	00060012 	andeq	r0, r6, r2, lsl r0
     a40:	000002c6 	andeq	r0, r0, r6, asr #5
     a44:	00002970 	andeq	r2, r0, r0, ror r9
     a48:	00000018 	andeq	r0, r0, r8, lsl r0
     a4c:	00060012 	andeq	r0, r6, r2, lsl r0
     a50:	000002cf 	andeq	r0, r0, pc, asr #5
     a54:	00002988 	andeq	r2, r0, r8, lsl #19
     a58:	00000018 	andeq	r0, r0, r8, lsl r0
     a5c:	00060012 	andeq	r0, r6, r2, lsl r0
     a60:	000002e9 	andeq	r0, r0, r9, ror #5
     a64:	000029a0 	andeq	r2, r0, r0, lsr #19
     a68:	00000018 	andeq	r0, r0, r8, lsl r0
     a6c:	00060012 	andeq	r0, r6, r2, lsl r0
     a70:	000002f2 	strdeq	r0, [r0], -r2
     a74:	000029b8 	strheq	r2, [r0], -r8
     a78:	00000018 	andeq	r0, r0, r8, lsl r0
     a7c:	00060012 	andeq	r0, r6, r2, lsl r0
     a80:	000002fa 	strdeq	r0, [r0], -sl
     a84:	000029d0 	ldrdeq	r2, [r0], -r0
     a88:	00000018 	andeq	r0, r0, r8, lsl r0
     a8c:	00060012 	andeq	r0, r6, r2, lsl r0
     a90:	00000314 	andeq	r0, r0, r4, lsl r3
     a94:	000029e8 	andeq	r2, r0, r8, ror #19
     a98:	00000018 	andeq	r0, r0, r8, lsl r0
     a9c:	00060012 	andeq	r0, r6, r2, lsl r0
     aa0:	0000032b 	andeq	r0, r0, fp, lsr #6
     aa4:	00002a00 	andeq	r2, r0, r0, lsl #20
     aa8:	00000018 	andeq	r0, r0, r8, lsl r0
     aac:	00060012 	andeq	r0, r6, r2, lsl r0
     ab0:	00000337 	andeq	r0, r0, r7, lsr r3
     ab4:	00002a18 	andeq	r2, r0, r8, lsl sl
     ab8:	00000018 	andeq	r0, r0, r8, lsl r0
     abc:	00060012 	andeq	r0, r6, r2, lsl r0
     ac0:	00000344 	andeq	r0, r0, r4, asr #6
     ac4:	00002a30 	andeq	r2, r0, r0, lsr sl
     ac8:	00000018 	andeq	r0, r0, r8, lsl r0
     acc:	00060012 	andeq	r0, r6, r2, lsl r0
     ad0:	00000355 	andeq	r0, r0, r5, asr r3
     ad4:	00002a48 	andeq	r2, r0, r8, asr #20
     ad8:	00000018 	andeq	r0, r0, r8, lsl r0
     adc:	00060012 	andeq	r0, r6, r2, lsl r0
     ae0:	00000367 	andeq	r0, r0, r7, ror #6
     ae4:	00002a60 	andeq	r2, r0, r0, ror #20
     ae8:	00000018 	andeq	r0, r0, r8, lsl r0
     aec:	00060012 	andeq	r0, r6, r2, lsl r0
     af0:	0000037a 	andeq	r0, r0, sl, ror r3
     af4:	00002a78 	andeq	r2, r0, r8, ror sl
     af8:	00000018 	andeq	r0, r0, r8, lsl r0
     afc:	00060012 	andeq	r0, r6, r2, lsl r0
     b00:	00000388 	andeq	r0, r0, r8, lsl #7
     b04:	00002a90 	muleq	r0, r0, sl
     b08:	00000018 	andeq	r0, r0, r8, lsl r0
     b0c:	00060012 	andeq	r0, r6, r2, lsl r0
     b10:	0000039a 	muleq	r0, sl, r3
     b14:	00002aa8 	andeq	r2, r0, r8, lsr #21
     b18:	00000018 	andeq	r0, r0, r8, lsl r0
     b1c:	00060012 	andeq	r0, r6, r2, lsl r0
     b20:	000003ad 	andeq	r0, r0, sp, lsr #7
     b24:	00002ac0 	andeq	r2, r0, r0, asr #21
     b28:	00000018 	andeq	r0, r0, r8, lsl r0
     b2c:	00060012 	andeq	r0, r6, r2, lsl r0
     b30:	000003c2 	andeq	r0, r0, r2, asr #7
     b34:	00002ad8 	ldrdeq	r2, [r0], -r8
     b38:	0000001c 	andeq	r0, r0, ip, lsl r0
     b3c:	00060012 	andeq	r0, r6, r2, lsl r0
     b40:	000003d6 	ldrdeq	r0, [r0], -r6
     b44:	00002af4 	strdeq	r2, [r0], -r4
     b48:	00000018 	andeq	r0, r0, r8, lsl r0
     b4c:	00060012 	andeq	r0, r6, r2, lsl r0
     b50:	000003e4 	andeq	r0, r0, r4, ror #7
     b54:	00002b0c 	andeq	r2, r0, ip, lsl #22
     b58:	00000018 	andeq	r0, r0, r8, lsl r0
     b5c:	00060012 	andeq	r0, r6, r2, lsl r0
     b60:	000003fb 	strdeq	r0, [r0], -fp
     b64:	00002b24 	andeq	r2, r0, r4, lsr #22
     b68:	0000001c 	andeq	r0, r0, ip, lsl r0
     b6c:	00060012 	andeq	r0, r6, r2, lsl r0
     b70:	00000406 	andeq	r0, r0, r6, lsl #8
     b74:	00002b40 	andeq	r2, r0, r0, asr #22
     b78:	00000018 	andeq	r0, r0, r8, lsl r0
     b7c:	00060012 	andeq	r0, r6, r2, lsl r0
     b80:	00000412 	andeq	r0, r0, r2, lsl r4
     b84:	00002b58 	andeq	r2, r0, r8, asr fp
     b88:	00000018 	andeq	r0, r0, r8, lsl r0
     b8c:	00060012 	andeq	r0, r6, r2, lsl r0
     b90:	00000438 	andeq	r0, r0, r8, lsr r4
     b94:	00002b70 	andeq	r2, r0, r0, ror fp
     b98:	00000018 	andeq	r0, r0, r8, lsl r0
     b9c:	00060012 	andeq	r0, r6, r2, lsl r0
     ba0:	00000446 	andeq	r0, r0, r6, asr #8
     ba4:	00002b88 	andeq	r2, r0, r8, lsl #23
     ba8:	00000018 	andeq	r0, r0, r8, lsl r0
     bac:	00060012 	andeq	r0, r6, r2, lsl r0
     bb0:	00000455 	andeq	r0, r0, r5, asr r4
     bb4:	00002ba0 	andeq	r2, r0, r0, lsr #23
     bb8:	00000018 	andeq	r0, r0, r8, lsl r0
     bbc:	00060012 	andeq	r0, r6, r2, lsl r0
     bc0:	00000469 	andeq	r0, r0, r9, ror #8
     bc4:	00002bb8 	strheq	r2, [r0], -r8
     bc8:	00000018 	andeq	r0, r0, r8, lsl r0
     bcc:	00060012 	andeq	r0, r6, r2, lsl r0
     bd0:	00000486 	andeq	r0, r0, r6, lsl #9
     bd4:	00002bd0 	ldrdeq	r2, [r0], -r0
     bd8:	00000018 	andeq	r0, r0, r8, lsl r0
     bdc:	00060012 	andeq	r0, r6, r2, lsl r0
     be0:	00000494 	muleq	r0, r4, r4
     be4:	00002be8 	andeq	r2, r0, r8, ror #23
     be8:	00000018 	andeq	r0, r0, r8, lsl r0
     bec:	00060012 	andeq	r0, r6, r2, lsl r0
     bf0:	000004a7 	andeq	r0, r0, r7, lsr #9
     bf4:	00002c00 	andeq	r2, r0, r0, lsl #24
     bf8:	00000018 	andeq	r0, r0, r8, lsl r0
     bfc:	00060012 	andeq	r0, r6, r2, lsl r0
     c00:	000004c2 	andeq	r0, r0, r2, asr #9
     c04:	00002c18 	andeq	r2, r0, r8, lsl ip
     c08:	00000018 	andeq	r0, r0, r8, lsl r0
     c0c:	00060012 	andeq	r0, r6, r2, lsl r0
     c10:	000004d4 	ldrdeq	r0, [r0], -r4
     c14:	00002c30 	andeq	r2, r0, r0, lsr ip
     c18:	0000001c 	andeq	r0, r0, ip, lsl r0
     c1c:	00060012 	andeq	r0, r6, r2, lsl r0
     c20:	000004e0 	andeq	r0, r0, r0, ror #9
     c24:	00002c4c 	andeq	r2, r0, ip, asr #24
     c28:	00000018 	andeq	r0, r0, r8, lsl r0
     c2c:	00060012 	andeq	r0, r6, r2, lsl r0
     c30:	000004f4 	strdeq	r0, [r0], -r4
     c34:	00002c64 	andeq	r2, r0, r4, ror #24
     c38:	00000018 	andeq	r0, r0, r8, lsl r0
     c3c:	00060012 	andeq	r0, r6, r2, lsl r0
     c40:	00000508 	andeq	r0, r0, r8, lsl #10
     c44:	00002c7c 	andeq	r2, r0, ip, ror ip
     c48:	00000018 	andeq	r0, r0, r8, lsl r0
     c4c:	00060012 	andeq	r0, r6, r2, lsl r0
     c50:	00000517 	andeq	r0, r0, r7, lsl r5
     c54:	00002c94 	muleq	r0, r4, ip
     c58:	00000018 	andeq	r0, r0, r8, lsl r0
     c5c:	00060012 	andeq	r0, r6, r2, lsl r0
     c60:	00000526 	andeq	r0, r0, r6, lsr #10
     c64:	00002cac 	andeq	r2, r0, ip, lsr #25
     c68:	0000001c 	andeq	r0, r0, ip, lsl r0
     c6c:	00060012 	andeq	r0, r6, r2, lsl r0
     c70:	0000053b 	andeq	r0, r0, fp, lsr r5
     c74:	00002cc8 	andeq	r2, r0, r8, asr #25
     c78:	00000018 	andeq	r0, r0, r8, lsl r0
     c7c:	00060012 	andeq	r0, r6, r2, lsl r0
     c80:	0000054f 	andeq	r0, r0, pc, asr #10
     c84:	00002ce0 	andeq	r2, r0, r0, ror #25
     c88:	00000018 	andeq	r0, r0, r8, lsl r0
     c8c:	00060012 	andeq	r0, r6, r2, lsl r0
     c90:	00000563 	andeq	r0, r0, r3, ror #10
     c94:	00002cf8 	strdeq	r2, [r0], -r8
     c98:	00000018 	andeq	r0, r0, r8, lsl r0
     c9c:	00060012 	andeq	r0, r6, r2, lsl r0
     ca0:	0000057d 	andeq	r0, r0, sp, ror r5
     ca4:	00002d10 	andeq	r2, r0, r0, lsl sp
     ca8:	00000018 	andeq	r0, r0, r8, lsl r0
     cac:	00060012 	andeq	r0, r6, r2, lsl r0
     cb0:	00000584 	andeq	r0, r0, r4, lsl #11
     cb4:	00002d28 	andeq	r2, r0, r8, lsr #26
     cb8:	0000001c 	andeq	r0, r0, ip, lsl r0
     cbc:	00060012 	andeq	r0, r6, r2, lsl r0
     cc0:	0000058f 	andeq	r0, r0, pc, lsl #11
     cc4:	00002d44 	andeq	r2, r0, r4, asr #26
     cc8:	0000001c 	andeq	r0, r0, ip, lsl r0
     ccc:	00060012 	andeq	r0, r6, r2, lsl r0
     cd0:	0000059b 	muleq	r0, fp, r5
     cd4:	00002d60 	andeq	r2, r0, r0, ror #26
     cd8:	0000001c 	andeq	r0, r0, ip, lsl r0
     cdc:	00060012 	andeq	r0, r6, r2, lsl r0
     ce0:	000005ab 	andeq	r0, r0, fp, lsr #11
     ce4:	00002d7c 	andeq	r2, r0, ip, ror sp
     ce8:	0000001c 	andeq	r0, r0, ip, lsl r0
     cec:	00060012 	andeq	r0, r6, r2, lsl r0
     cf0:	000005b7 	strheq	r0, [r0], -r7
     cf4:	00002d98 	muleq	r0, r8, sp
     cf8:	0000001c 	andeq	r0, r0, ip, lsl r0
     cfc:	00060012 	andeq	r0, r6, r2, lsl r0
     d00:	000005c8 	andeq	r0, r0, r8, asr #11
     d04:	00002db4 	strheq	r2, [r0], -r4
     d08:	0000001c 	andeq	r0, r0, ip, lsl r0
     d0c:	00060012 	andeq	r0, r6, r2, lsl r0
     d10:	000005d3 	ldrdeq	r0, [r0], -r3
     d14:	00002dd0 	ldrdeq	r2, [r0], -r0
     d18:	0000001c 	andeq	r0, r0, ip, lsl r0
     d1c:	00060012 	andeq	r0, r6, r2, lsl r0
     d20:	000005df 	ldrdeq	r0, [r0], -pc
     d24:	00002dec 	andeq	r2, r0, ip, ror #27
     d28:	00000018 	andeq	r0, r0, r8, lsl r0
     d2c:	00060012 	andeq	r0, r6, r2, lsl r0
     d30:	000005eb 	andeq	r0, r0, fp, ror #11
     d34:	00002e04 	andeq	r2, r0, r4, lsl #28
     d38:	00000018 	andeq	r0, r0, r8, lsl r0
     d3c:	00060012 	andeq	r0, r6, r2, lsl r0
     d40:	000005f9 	strdeq	r0, [r0], -r9
     d44:	00002e1c 	andeq	r2, r0, ip, lsl lr
     d48:	00000018 	andeq	r0, r0, r8, lsl r0
     d4c:	00060012 	andeq	r0, r6, r2, lsl r0
     d50:	00000607 	andeq	r0, r0, r7, lsl #12
     d54:	00002e34 	andeq	r2, r0, r4, lsr lr
     d58:	00000018 	andeq	r0, r0, r8, lsl r0
     d5c:	00060012 	andeq	r0, r6, r2, lsl r0
     d60:	00000617 	andeq	r0, r0, r7, lsl r6
     d64:	00002e4c 	andeq	r2, r0, ip, asr #28
     d68:	00000018 	andeq	r0, r0, r8, lsl r0
     d6c:	00060012 	andeq	r0, r6, r2, lsl r0
     d70:	00000624 	andeq	r0, r0, r4, lsr #12
     d74:	00002e64 	andeq	r2, r0, r4, ror #28
     d78:	00000018 	andeq	r0, r0, r8, lsl r0
     d7c:	00060012 	andeq	r0, r6, r2, lsl r0
     d80:	0000063c 	andeq	r0, r0, ip, lsr r6
     d84:	00002e7c 	andeq	r2, r0, ip, ror lr
     d88:	00000018 	andeq	r0, r0, r8, lsl r0
     d8c:	00060012 	andeq	r0, r6, r2, lsl r0
     d90:	00000652 	andeq	r0, r0, r2, asr r6
     d94:	00002e94 	muleq	r0, r4, lr
     d98:	00000018 	andeq	r0, r0, r8, lsl r0
     d9c:	00060012 	andeq	r0, r6, r2, lsl r0
     da0:	00000663 	andeq	r0, r0, r3, ror #12
     da4:	00002eac 	andeq	r2, r0, ip, lsr #29
     da8:	00000018 	andeq	r0, r0, r8, lsl r0
     dac:	00060012 	andeq	r0, r6, r2, lsl r0
     db0:	0000066d 	andeq	r0, r0, sp, ror #12
     db4:	00002ec4 	andeq	r2, r0, r4, asr #29
     db8:	00000018 	andeq	r0, r0, r8, lsl r0
     dbc:	00060012 	andeq	r0, r6, r2, lsl r0
     dc0:	0000067c 	andeq	r0, r0, ip, ror r6
     dc4:	00002edc 	ldrdeq	r2, [r0], -ip
     dc8:	00000018 	andeq	r0, r0, r8, lsl r0
     dcc:	00060012 	andeq	r0, r6, r2, lsl r0
     dd0:	0000068b 	andeq	r0, r0, fp, lsl #13
     dd4:	00002ef4 	strdeq	r2, [r0], -r4
     dd8:	00000018 	andeq	r0, r0, r8, lsl r0
     ddc:	00060012 	andeq	r0, r6, r2, lsl r0
     de0:	00000699 	muleq	r0, r9, r6
     de4:	00002f0c 	andeq	r2, r0, ip, lsl #30
     de8:	00000018 	andeq	r0, r0, r8, lsl r0
     dec:	00060012 	andeq	r0, r6, r2, lsl r0
     df0:	000006af 	andeq	r0, r0, pc, lsr #13
     df4:	00002f24 	andeq	r2, r0, r4, lsr #30
     df8:	00000018 	andeq	r0, r0, r8, lsl r0
     dfc:	00060012 	andeq	r0, r6, r2, lsl r0
     e00:	000006bd 	strheq	r0, [r0], -sp
     e04:	00002f3c 	andeq	r2, r0, ip, lsr pc
     e08:	00000018 	andeq	r0, r0, r8, lsl r0
     e0c:	00060012 	andeq	r0, r6, r2, lsl r0
     e10:	000006d3 	ldrdeq	r0, [r0], -r3
     e14:	00002f54 	andeq	r2, r0, r4, asr pc
     e18:	00000018 	andeq	r0, r0, r8, lsl r0
     e1c:	00060012 	andeq	r0, r6, r2, lsl r0
     e20:	000006df 	ldrdeq	r0, [r0], -pc
     e24:	00002f6c 	andeq	r2, r0, ip, ror #30
     e28:	00000018 	andeq	r0, r0, r8, lsl r0
     e2c:	00060012 	andeq	r0, r6, r2, lsl r0
     e30:	000006f3 	strdeq	r0, [r0], -r3
     e34:	00002f84 	andeq	r2, r0, r4, lsl #31
     e38:	00000018 	andeq	r0, r0, r8, lsl r0
     e3c:	00060012 	andeq	r0, r6, r2, lsl r0
     e40:	00000700 	andeq	r0, r0, r0, lsl #14
     e44:	00002f9c 	muleq	r0, ip, pc
     e48:	00000018 	andeq	r0, r0, r8, lsl r0
     e4c:	00060012 	andeq	r0, r6, r2, lsl r0
     e50:	00000710 	andeq	r0, r0, r0, lsl r7
     e54:	00002fb4 	strheq	r2, [r0], -r4
     e58:	00000018 	andeq	r0, r0, r8, lsl r0
     e5c:	00060012 	andeq	r0, r6, r2, lsl r0
     e60:	00000721 	andeq	r0, r0, r1, lsr #14
     e64:	00002fcc 	andeq	r2, r0, ip, asr #31
     e68:	00000018 	andeq	r0, r0, r8, lsl r0
     e6c:	00060012 	andeq	r0, r6, r2, lsl r0
     e70:	00000731 	andeq	r0, r0, r1, lsr r7
     e74:	00002fe4 	andeq	r2, r0, r4, ror #31
     e78:	00000018 	andeq	r0, r0, r8, lsl r0
     e7c:	00060012 	andeq	r0, r6, r2, lsl r0
     e80:	00000742 	andeq	r0, r0, r2, asr #14
     e84:	00002ffc 	strdeq	r2, [r0], -ip
     e88:	00000018 	andeq	r0, r0, r8, lsl r0
     e8c:	00060012 	andeq	r0, r6, r2, lsl r0
     e90:	00000752 	andeq	r0, r0, r2, asr r7
     e94:	00003014 	andeq	r3, r0, r4, lsl r0
     e98:	00000018 	andeq	r0, r0, r8, lsl r0
     e9c:	00060012 	andeq	r0, r6, r2, lsl r0
     ea0:	0000075e 	andeq	r0, r0, lr, asr r7
     ea4:	0000302c 	andeq	r3, r0, ip, lsr #32
     ea8:	00000018 	andeq	r0, r0, r8, lsl r0
     eac:	00060012 	andeq	r0, r6, r2, lsl r0
     eb0:	0000076b 	andeq	r0, r0, fp, ror #14
     eb4:	00003044 	andeq	r3, r0, r4, asr #32
     eb8:	00000018 	andeq	r0, r0, r8, lsl r0
     ebc:	00060012 	andeq	r0, r6, r2, lsl r0
     ec0:	00000777 	andeq	r0, r0, r7, ror r7
     ec4:	0000305c 	andeq	r3, r0, ip, asr r0
     ec8:	00000018 	andeq	r0, r0, r8, lsl r0
     ecc:	00060012 	andeq	r0, r6, r2, lsl r0
     ed0:	00000784 	andeq	r0, r0, r4, lsl #15
     ed4:	00003074 	andeq	r3, r0, r4, ror r0
     ed8:	00000018 	andeq	r0, r0, r8, lsl r0
     edc:	00060012 	andeq	r0, r6, r2, lsl r0
     ee0:	00000790 	muleq	r0, r0, r7
     ee4:	0000308c 	andeq	r3, r0, ip, lsl #1
     ee8:	00000018 	andeq	r0, r0, r8, lsl r0
     eec:	00060012 	andeq	r0, r6, r2, lsl r0
     ef0:	0000079d 	muleq	r0, sp, r7
     ef4:	000030a4 	andeq	r3, r0, r4, lsr #1
     ef8:	00000018 	andeq	r0, r0, r8, lsl r0
     efc:	00060012 	andeq	r0, r6, r2, lsl r0
     f00:	000007a9 	andeq	r0, r0, r9, lsr #15
     f04:	000030bc 	strheq	r3, [r0], -ip
     f08:	00000018 	andeq	r0, r0, r8, lsl r0
     f0c:	00060012 	andeq	r0, r6, r2, lsl r0
     f10:	000007b6 	strheq	r0, [r0], -r6
     f14:	000030d4 	ldrdeq	r3, [r0], -r4
     f18:	00000018 	andeq	r0, r0, r8, lsl r0
     f1c:	00060012 	andeq	r0, r6, r2, lsl r0
     f20:	000007c2 	andeq	r0, r0, r2, asr #15
     f24:	000030ec 	andeq	r3, r0, ip, ror #1
     f28:	00000018 	andeq	r0, r0, r8, lsl r0
     f2c:	00060012 	andeq	r0, r6, r2, lsl r0
     f30:	000007cf 	andeq	r0, r0, pc, asr #15
     f34:	00003104 	andeq	r3, r0, r4, lsl #2
     f38:	00000018 	andeq	r0, r0, r8, lsl r0
     f3c:	00060012 	andeq	r0, r6, r2, lsl r0
     f40:	000007db 	ldrdeq	r0, [r0], -fp
     f44:	0000311c 	andeq	r3, r0, ip, lsl r1
     f48:	00000018 	andeq	r0, r0, r8, lsl r0
     f4c:	00060012 	andeq	r0, r6, r2, lsl r0
     f50:	000007e8 	andeq	r0, r0, r8, ror #15
     f54:	00003134 	andeq	r3, r0, r4, lsr r1
     f58:	00000018 	andeq	r0, r0, r8, lsl r0
     f5c:	00060012 	andeq	r0, r6, r2, lsl r0
     f60:	000007f4 	strdeq	r0, [r0], -r4
     f64:	0000314c 	andeq	r3, r0, ip, asr #2
     f68:	00000018 	andeq	r0, r0, r8, lsl r0
     f6c:	00060012 	andeq	r0, r6, r2, lsl r0
     f70:	00000801 	andeq	r0, r0, r1, lsl #16
     f74:	00003164 	andeq	r3, r0, r4, ror #2
     f78:	00000018 	andeq	r0, r0, r8, lsl r0
     f7c:	00060012 	andeq	r0, r6, r2, lsl r0
     f80:	0000080d 	andeq	r0, r0, sp, lsl #16
     f84:	0000317c 	andeq	r3, r0, ip, ror r1
     f88:	00000018 	andeq	r0, r0, r8, lsl r0
     f8c:	00060012 	andeq	r0, r6, r2, lsl r0
     f90:	0000081a 	andeq	r0, r0, sl, lsl r8
     f94:	00003194 	muleq	r0, r4, r1
     f98:	00000018 	andeq	r0, r0, r8, lsl r0
     f9c:	00060012 	andeq	r0, r6, r2, lsl r0
     fa0:	0000082d 	andeq	r0, r0, sp, lsr #16
     fa4:	000031ac 	andeq	r3, r0, ip, lsr #3
     fa8:	00000018 	andeq	r0, r0, r8, lsl r0
     fac:	00060012 	andeq	r0, r6, r2, lsl r0
     fb0:	00000840 	andeq	r0, r0, r0, asr #16
     fb4:	000031c4 	andeq	r3, r0, r4, asr #3
     fb8:	00000018 	andeq	r0, r0, r8, lsl r0
     fbc:	00060012 	andeq	r0, r6, r2, lsl r0
     fc0:	00000853 	andeq	r0, r0, r3, asr r8
     fc4:	000031dc 	ldrdeq	r3, [r0], -ip
     fc8:	00000018 	andeq	r0, r0, r8, lsl r0
     fcc:	00060012 	andeq	r0, r6, r2, lsl r0
     fd0:	00000860 	andeq	r0, r0, r0, ror #16
     fd4:	000031f4 	strdeq	r3, [r0], -r4
     fd8:	00000018 	andeq	r0, r0, r8, lsl r0
     fdc:	00060012 	andeq	r0, r6, r2, lsl r0
     fe0:	00000872 	andeq	r0, r0, r2, ror r8
     fe4:	0000320c 	andeq	r3, r0, ip, lsl #4
     fe8:	00000018 	andeq	r0, r0, r8, lsl r0
     fec:	00060012 	andeq	r0, r6, r2, lsl r0
     ff0:	00000883 	andeq	r0, r0, r3, lsl #17
     ff4:	00003224 	andeq	r3, r0, r4, lsr #4
     ff8:	00000018 	andeq	r0, r0, r8, lsl r0
     ffc:	00060012 	andeq	r0, r6, r2, lsl r0
    1000:	00000895 	muleq	r0, r5, r8
    1004:	0000323c 	andeq	r3, r0, ip, lsr r2
    1008:	00000018 	andeq	r0, r0, r8, lsl r0
    100c:	00060012 	andeq	r0, r6, r2, lsl r0
    1010:	000008a6 	andeq	r0, r0, r6, lsr #17
    1014:	00003254 	andeq	r3, r0, r4, asr r2
    1018:	00000018 	andeq	r0, r0, r8, lsl r0
    101c:	00060012 	andeq	r0, r6, r2, lsl r0
    1020:	000008b8 	strheq	r0, [r0], -r8
    1024:	0000326c 	andeq	r3, r0, ip, ror #4
    1028:	00000018 	andeq	r0, r0, r8, lsl r0
    102c:	00060012 	andeq	r0, r6, r2, lsl r0
    1030:	000008c9 	andeq	r0, r0, r9, asr #17
    1034:	00003284 	andeq	r3, r0, r4, lsl #5
    1038:	00000018 	andeq	r0, r0, r8, lsl r0
    103c:	00060012 	andeq	r0, r6, r2, lsl r0
    1040:	000008db 	ldrdeq	r0, [r0], -fp
    1044:	0000329c 	muleq	r0, ip, r2
    1048:	00000018 	andeq	r0, r0, r8, lsl r0
    104c:	00060012 	andeq	r0, r6, r2, lsl r0
    1050:	000008ec 	andeq	r0, r0, ip, ror #17
    1054:	000032b4 	strheq	r3, [r0], -r4
    1058:	00000018 	andeq	r0, r0, r8, lsl r0
    105c:	00060012 	andeq	r0, r6, r2, lsl r0
    1060:	000008fe 	strdeq	r0, [r0], -lr
    1064:	000032cc 	andeq	r3, r0, ip, asr #5
    1068:	00000018 	andeq	r0, r0, r8, lsl r0
    106c:	00060012 	andeq	r0, r6, r2, lsl r0
    1070:	00000914 	andeq	r0, r0, r4, lsl r9
    1074:	000032e4 	andeq	r3, r0, r4, ror #5
    1078:	00000018 	andeq	r0, r0, r8, lsl r0
    107c:	00060012 	andeq	r0, r6, r2, lsl r0
    1080:	0000091f 	andeq	r0, r0, pc, lsl r9
    1084:	0000332c 	andeq	r3, r0, ip, lsr #6
    1088:	00000018 	andeq	r0, r0, r8, lsl r0
    108c:	00060012 	andeq	r0, r6, r2, lsl r0
    1090:	00000935 	andeq	r0, r0, r5, lsr r9
    1094:	00003344 	andeq	r3, r0, r4, asr #6
    1098:	00000018 	andeq	r0, r0, r8, lsl r0
    109c:	00060012 	andeq	r0, r6, r2, lsl r0
    10a0:	00000948 	andeq	r0, r0, r8, asr #18
    10a4:	0000335c 	andeq	r3, r0, ip, asr r3
    10a8:	0000001c 	andeq	r0, r0, ip, lsl r0
    10ac:	00060012 	andeq	r0, r6, r2, lsl r0
    10b0:	00000957 	andeq	r0, r0, r7, asr r9
    10b4:	00003378 	andeq	r3, r0, r8, ror r3
    10b8:	0000001c 	andeq	r0, r0, ip, lsl r0
    10bc:	00060012 	andeq	r0, r6, r2, lsl r0
    10c0:	00000968 	andeq	r0, r0, r8, ror #18
    10c4:	00003394 	muleq	r0, r4, r3
    10c8:	00000018 	andeq	r0, r0, r8, lsl r0
    10cc:	00060012 	andeq	r0, r6, r2, lsl r0
    10d0:	0000097f 	andeq	r0, r0, pc, ror r9
    10d4:	000033ac 	andeq	r3, r0, ip, lsr #7
    10d8:	00000018 	andeq	r0, r0, r8, lsl r0
    10dc:	00060012 	andeq	r0, r6, r2, lsl r0
    10e0:	0000098f 	andeq	r0, r0, pc, lsl #19
    10e4:	000033c4 	andeq	r3, r0, r4, asr #7
    10e8:	00000018 	andeq	r0, r0, r8, lsl r0
    10ec:	00060012 	andeq	r0, r6, r2, lsl r0
    10f0:	000009a2 	andeq	r0, r0, r2, lsr #19
    10f4:	000033dc 	ldrdeq	r3, [r0], -ip
    10f8:	00000018 	andeq	r0, r0, r8, lsl r0
    10fc:	00060012 	andeq	r0, r6, r2, lsl r0
    1100:	000009b9 	strheq	r0, [r0], -r9
    1104:	000033f4 	strdeq	r3, [r0], -r4
    1108:	00000018 	andeq	r0, r0, r8, lsl r0
    110c:	00060012 	andeq	r0, r6, r2, lsl r0
    1110:	000009d3 	ldrdeq	r0, [r0], -r3
    1114:	0000340c 	andeq	r3, r0, ip, lsl #8
    1118:	00000018 	andeq	r0, r0, r8, lsl r0
    111c:	00060012 	andeq	r0, r6, r2, lsl r0
    1120:	000009f0 	strdeq	r0, [r0], -r0
    1124:	00003424 	andeq	r3, r0, r4, lsr #8
    1128:	00000018 	andeq	r0, r0, r8, lsl r0
    112c:	00060012 	andeq	r0, r6, r2, lsl r0
    1130:	00000a0a 	andeq	r0, r0, sl, lsl #20
    1134:	0000343c 	andeq	r3, r0, ip, lsr r4
    1138:	00000018 	andeq	r0, r0, r8, lsl r0
    113c:	00060012 	andeq	r0, r6, r2, lsl r0
    1140:	00000a1f 	andeq	r0, r0, pc, lsl sl
    1144:	00003454 	andeq	r3, r0, r4, asr r4
    1148:	00000018 	andeq	r0, r0, r8, lsl r0
    114c:	00060012 	andeq	r0, r6, r2, lsl r0
    1150:	00000a37 	andeq	r0, r0, r7, lsr sl
    1154:	0000346c 	andeq	r3, r0, ip, ror #8
    1158:	00000018 	andeq	r0, r0, r8, lsl r0
    115c:	00060012 	andeq	r0, r6, r2, lsl r0
    1160:	00000a4c 	andeq	r0, r0, ip, asr #20
    1164:	00003484 	andeq	r3, r0, r4, lsl #9
    1168:	0000001c 	andeq	r0, r0, ip, lsl r0
    116c:	00060012 	andeq	r0, r6, r2, lsl r0
    1170:	00000a5f 	andeq	r0, r0, pc, asr sl
    1174:	000034a0 	andeq	r3, r0, r0, lsr #9
    1178:	00000018 	andeq	r0, r0, r8, lsl r0
    117c:	00060012 	andeq	r0, r6, r2, lsl r0
    1180:	00000a79 	andeq	r0, r0, r9, ror sl
    1184:	000034b8 	strheq	r3, [r0], -r8
    1188:	00000018 	andeq	r0, r0, r8, lsl r0
    118c:	00060012 	andeq	r0, r6, r2, lsl r0
    1190:	00000a95 	muleq	r0, r5, sl
    1194:	000034d0 	ldrdeq	r3, [r0], -r0
    1198:	00000018 	andeq	r0, r0, r8, lsl r0
    119c:	00060012 	andeq	r0, r6, r2, lsl r0
    11a0:	00000ab4 	strheq	r0, [r0], -r4
    11a4:	000034e8 	andeq	r3, r0, r8, ror #9
    11a8:	00000018 	andeq	r0, r0, r8, lsl r0
    11ac:	00060012 	andeq	r0, r6, r2, lsl r0
    11b0:	00000ad5 	ldrdeq	r0, [r0], -r5
    11b4:	00003500 	andeq	r3, r0, r0, lsl #10
    11b8:	00000018 	andeq	r0, r0, r8, lsl r0
    11bc:	00060012 	andeq	r0, r6, r2, lsl r0
    11c0:	00000af4 	strdeq	r0, [r0], -r4
    11c4:	00003518 	andeq	r3, r0, r8, lsl r5
    11c8:	00000018 	andeq	r0, r0, r8, lsl r0
    11cc:	00060012 	andeq	r0, r6, r2, lsl r0
    11d0:	00000b09 	andeq	r0, r0, r9, lsl #22
    11d4:	00003530 	andeq	r3, r0, r0, lsr r5
    11d8:	00000018 	andeq	r0, r0, r8, lsl r0
    11dc:	00060012 	andeq	r0, r6, r2, lsl r0
    11e0:	00000b21 	andeq	r0, r0, r1, lsr #22
    11e4:	00003548 	andeq	r3, r0, r8, asr #10
    11e8:	00000018 	andeq	r0, r0, r8, lsl r0
    11ec:	00060012 	andeq	r0, r6, r2, lsl r0
    11f0:	00000b40 	andeq	r0, r0, r0, asr #22
    11f4:	00003560 	andeq	r3, r0, r0, ror #10
    11f8:	00000018 	andeq	r0, r0, r8, lsl r0
    11fc:	00060012 	andeq	r0, r6, r2, lsl r0
    1200:	00000b56 	andeq	r0, r0, r6, asr fp
    1204:	00003578 	andeq	r3, r0, r8, ror r5
    1208:	00000018 	andeq	r0, r0, r8, lsl r0
    120c:	00060012 	andeq	r0, r6, r2, lsl r0
    1210:	00000b6a 	andeq	r0, r0, sl, ror #22
    1214:	00003590 	muleq	r0, r0, r5
    1218:	00000018 	andeq	r0, r0, r8, lsl r0
    121c:	00060012 	andeq	r0, r6, r2, lsl r0
    1220:	00000b89 	andeq	r0, r0, r9, lsl #23
    1224:	000035a8 	andeq	r3, r0, r8, lsr #11
    1228:	00000018 	andeq	r0, r0, r8, lsl r0
    122c:	00060012 	andeq	r0, r6, r2, lsl r0
    1230:	00000ba1 	andeq	r0, r0, r1, lsr #23
    1234:	000035c0 	andeq	r3, r0, r0, asr #11
    1238:	00000018 	andeq	r0, r0, r8, lsl r0
    123c:	00060012 	andeq	r0, r6, r2, lsl r0
    1240:	00000bb6 	strheq	r0, [r0], -r6
    1244:	000035d8 	ldrdeq	r3, [r0], -r8
    1248:	00000018 	andeq	r0, r0, r8, lsl r0
    124c:	00060012 	andeq	r0, r6, r2, lsl r0
    1250:	00000bcd 	andeq	r0, r0, sp, asr #23
    1254:	000035f0 	strdeq	r3, [r0], -r0
    1258:	00000018 	andeq	r0, r0, r8, lsl r0
    125c:	00060012 	andeq	r0, r6, r2, lsl r0
    1260:	00000bf1 	strdeq	r0, [r0], -r1
    1264:	00003608 	andeq	r3, r0, r8, lsl #12
    1268:	00000018 	andeq	r0, r0, r8, lsl r0
    126c:	00060012 	andeq	r0, r6, r2, lsl r0
    1270:	00000c16 	andeq	r0, r0, r6, lsl ip
    1274:	00003620 	andeq	r3, r0, r0, lsr #12
    1278:	00000018 	andeq	r0, r0, r8, lsl r0
    127c:	00060012 	andeq	r0, r6, r2, lsl r0
    1280:	00000c27 	andeq	r0, r0, r7, lsr #24
    1284:	00003638 	andeq	r3, r0, r8, lsr r6
    1288:	00000018 	andeq	r0, r0, r8, lsl r0
    128c:	00060012 	andeq	r0, r6, r2, lsl r0
    1290:	00000c35 	andeq	r0, r0, r5, lsr ip
    1294:	00003650 	andeq	r3, r0, r0, asr r6
    1298:	0000001c 	andeq	r0, r0, ip, lsl r0
    129c:	00060012 	andeq	r0, r6, r2, lsl r0
    12a0:	00000c41 	andeq	r0, r0, r1, asr #24
    12a4:	0000366c 	andeq	r3, r0, ip, ror #12
    12a8:	0000001c 	andeq	r0, r0, ip, lsl r0
    12ac:	00060012 	andeq	r0, r6, r2, lsl r0
    12b0:	00000c4f 	andeq	r0, r0, pc, asr #24
    12b4:	00003688 	andeq	r3, r0, r8, lsl #13
    12b8:	00000018 	andeq	r0, r0, r8, lsl r0
    12bc:	00060012 	andeq	r0, r6, r2, lsl r0
    12c0:	00000c5e 	andeq	r0, r0, lr, asr ip
    12c4:	000036a0 	andeq	r3, r0, r0, lsr #13
    12c8:	00000018 	andeq	r0, r0, r8, lsl r0
    12cc:	00060012 	andeq	r0, r6, r2, lsl r0
    12d0:	00000c6e 	andeq	r0, r0, lr, ror #24
    12d4:	000036b8 	strheq	r3, [r0], -r8
    12d8:	00000018 	andeq	r0, r0, r8, lsl r0
    12dc:	00060012 	andeq	r0, r6, r2, lsl r0
    12e0:	00000c7b 	andeq	r0, r0, fp, ror ip
    12e4:	000036d0 	ldrdeq	r3, [r0], -r0
    12e8:	00000018 	andeq	r0, r0, r8, lsl r0
    12ec:	00060012 	andeq	r0, r6, r2, lsl r0
    12f0:	00000c8c 	andeq	r0, r0, ip, lsl #25
    12f4:	000036e8 	andeq	r3, r0, r8, ror #13
    12f8:	00000018 	andeq	r0, r0, r8, lsl r0
    12fc:	00060012 	andeq	r0, r6, r2, lsl r0
    1300:	00000ca2 	andeq	r0, r0, r2, lsr #25
    1304:	00003700 	andeq	r3, r0, r0, lsl #14
    1308:	00000018 	andeq	r0, r0, r8, lsl r0
    130c:	00060012 	andeq	r0, r6, r2, lsl r0
    1310:	00000cba 	strheq	r0, [r0], -sl
    1314:	00003718 	andeq	r3, r0, r8, lsl r7
    1318:	00000018 	andeq	r0, r0, r8, lsl r0
    131c:	00060012 	andeq	r0, r6, r2, lsl r0
    1320:	00000cd7 	ldrdeq	r0, [r0], -r7
    1324:	00003730 	andeq	r3, r0, r0, lsr r7
    1328:	00000018 	andeq	r0, r0, r8, lsl r0
    132c:	00060012 	andeq	r0, r6, r2, lsl r0
    1330:	00000cf1 	strdeq	r0, [r0], -r1
    1334:	00003748 	andeq	r3, r0, r8, asr #14
    1338:	00000018 	andeq	r0, r0, r8, lsl r0
    133c:	00060012 	andeq	r0, r6, r2, lsl r0
    1340:	00000d0c 	andeq	r0, r0, ip, lsl #26
    1344:	00003760 	andeq	r3, r0, r0, ror #14
    1348:	00000018 	andeq	r0, r0, r8, lsl r0
    134c:	00060012 	andeq	r0, r6, r2, lsl r0
    1350:	00000d21 	andeq	r0, r0, r1, lsr #26
    1354:	00003778 	andeq	r3, r0, r8, ror r7
    1358:	00000018 	andeq	r0, r0, r8, lsl r0
    135c:	00060012 	andeq	r0, r6, r2, lsl r0
    1360:	00000d35 	andeq	r0, r0, r5, lsr sp
    1364:	00003790 	muleq	r0, r0, r7
    1368:	00000018 	andeq	r0, r0, r8, lsl r0
    136c:	00060012 	andeq	r0, r6, r2, lsl r0
    1370:	00000d4f 	andeq	r0, r0, pc, asr #26
    1374:	000037a8 	andeq	r3, r0, r8, lsr #15
    1378:	00000018 	andeq	r0, r0, r8, lsl r0
    137c:	00060012 	andeq	r0, r6, r2, lsl r0
    1380:	00000d68 	andeq	r0, r0, r8, ror #26
    1384:	000037c0 	andeq	r3, r0, r0, asr #15
    1388:	00000018 	andeq	r0, r0, r8, lsl r0
    138c:	00060012 	andeq	r0, r6, r2, lsl r0
    1390:	00000d88 	andeq	r0, r0, r8, lsl #27
    1394:	000037d8 	ldrdeq	r3, [r0], -r8
    1398:	00000018 	andeq	r0, r0, r8, lsl r0
    139c:	00060012 	andeq	r0, r6, r2, lsl r0
    13a0:	00000da9 	andeq	r0, r0, r9, lsr #27
    13a4:	000037f0 	strdeq	r3, [r0], -r0
    13a8:	00000018 	andeq	r0, r0, r8, lsl r0
    13ac:	00060012 	andeq	r0, r6, r2, lsl r0
    13b0:	00000dc1 	andeq	r0, r0, r1, asr #27
    13b4:	00003808 	andeq	r3, r0, r8, lsl #16
    13b8:	00000018 	andeq	r0, r0, r8, lsl r0
    13bc:	00060012 	andeq	r0, r6, r2, lsl r0
    13c0:	00000ddc 	ldrdeq	r0, [r0], -ip
    13c4:	00003820 	andeq	r3, r0, r0, lsr #16
    13c8:	00000018 	andeq	r0, r0, r8, lsl r0
    13cc:	00060012 	andeq	r0, r6, r2, lsl r0
    13d0:	00000df0 	strdeq	r0, [r0], -r0
    13d4:	00003838 	andeq	r3, r0, r8, lsr r8
    13d8:	00000018 	andeq	r0, r0, r8, lsl r0
    13dc:	00060012 	andeq	r0, r6, r2, lsl r0
    13e0:	00000e05 	andeq	r0, r0, r5, lsl #28
    13e4:	00003850 	andeq	r3, r0, r0, asr r8
    13e8:	0000001c 	andeq	r0, r0, ip, lsl r0
    13ec:	00060012 	andeq	r0, r6, r2, lsl r0
    13f0:	00000e1e 	andeq	r0, r0, lr, lsl lr
    13f4:	0000386c 	andeq	r3, r0, ip, ror #16
    13f8:	00000018 	andeq	r0, r0, r8, lsl r0
    13fc:	00060012 	andeq	r0, r6, r2, lsl r0
    1400:	00000e3e 	andeq	r0, r0, lr, lsr lr
    1404:	00003884 	andeq	r3, r0, r4, lsl #17
    1408:	00000018 	andeq	r0, r0, r8, lsl r0
    140c:	00060012 	andeq	r0, r6, r2, lsl r0
    1410:	00000e50 	andeq	r0, r0, r0, asr lr
    1414:	0000389c 	muleq	r0, ip, r8
    1418:	00000018 	andeq	r0, r0, r8, lsl r0
    141c:	00060012 	andeq	r0, r6, r2, lsl r0
    1420:	00000e60 	andeq	r0, r0, r0, ror #28
    1424:	000038b4 	strheq	r3, [r0], -r4
    1428:	00000020 	andeq	r0, r0, r0, lsr #32
    142c:	00060012 	andeq	r0, r6, r2, lsl r0
    1430:	00000e87 	andeq	r0, r0, r7, lsl #29
	...
    143c:	00000012 	andeq	r0, r0, r2, lsl r0
    1440:	00000eb9 	strheq	r0, [r0], -r9
    1444:	000038d4 	ldrdeq	r3, [r0], -r4
    1448:	00000020 	andeq	r0, r0, r0, lsr #32
    144c:	00060012 	andeq	r0, r6, r2, lsl r0
    1450:	00000ed6 	ldrdeq	r0, [r0], -r6
	...
    145c:	00000012 	andeq	r0, r0, r2, lsl r0
    1460:	00000ee5 	andeq	r0, r0, r5, ror #29
    1464:	00004110 	andeq	r4, r0, r0, lsl r1
    1468:	00000000 	andeq	r0, r0, r0
    146c:	000c0010 	andeq	r0, ip, r0, lsl r0
    1470:	00000ef2 	strdeq	r0, [r0], -r2
    1474:	00004000 	andeq	r4, r0, r0
    1478:	00000000 	andeq	r0, r0, r0
    147c:	00080010 	andeq	r0, r8, r0, lsl r0
    1480:	00000f01 	andeq	r0, r0, r1, lsl #30
    1484:	00004008 	andeq	r4, r0, r8
    1488:	00000000 	andeq	r0, r0, r0
    148c:	00090010 	andeq	r0, r9, r0, lsl r0
    1490:	00000f10 	andeq	r0, r0, r0, lsl pc
    1494:	000038f4 	strdeq	r3, [r0], -r4
    1498:	00000000 	andeq	r0, r0, r0
    149c:	fff10010 	undefined instruction 0xfff10010
    14a0:	00000f1e 	andeq	r0, r0, lr, lsl pc
    14a4:	0000390c 	andeq	r3, r0, ip, lsl #18
    14a8:	00000000 	andeq	r0, r0, r0
    14ac:	fff10010 	undefined instruction 0xfff10010
    14b0:	00000f2a 	andeq	r0, r0, sl, lsr #30
    14b4:	00004110 	andeq	r4, r0, r0, lsl r1
    14b8:	00000000 	andeq	r0, r0, r0
    14bc:	fff10010 	undefined instruction 0xfff10010
    14c0:	00000f37 	andeq	r0, r0, r7, lsr pc
    14c4:	00004110 	andeq	r4, r0, r0, lsl r1
    14c8:	00000000 	andeq	r0, r0, r0
    14cc:	fff10010 	undefined instruction 0xfff10010
    14d0:	00000f3e 	andeq	r0, r0, lr, lsr pc
    14d4:	00004110 	andeq	r4, r0, r0, lsl r1
    14d8:	00000000 	andeq	r0, r0, r0
    14dc:	fff10010 	undefined instruction 0xfff10010
    14e0:	00000f4a 	andeq	r0, r0, sl, asr #30
    14e4:	00004110 	andeq	r4, r0, r0, lsl r1
    14e8:	00000000 	andeq	r0, r0, r0
    14ec:	fff10010 	undefined instruction 0xfff10010
    14f0:	00000f58 	andeq	r0, r0, r8, asr pc
    14f4:	00004120 	andeq	r4, r0, r0, lsr #2
    14f8:	00000000 	andeq	r0, r0, r0
    14fc:	fff10010 	undefined instruction 0xfff10010
    1500:	00000f63 	andeq	r0, r0, r3, ror #30
    1504:	00004120 	andeq	r4, r0, r0, lsr #2
    1508:	00000000 	andeq	r0, r0, r0
    150c:	fff10010 	undefined instruction 0xfff10010
    1510:	00000f6f 	andeq	r0, r0, pc, ror #30
    1514:	00004120 	andeq	r4, r0, r0, lsr #2
    1518:	00000000 	andeq	r0, r0, r0
    151c:	fff10010 	undefined instruction 0xfff10010
    1520:	00000f77 	andeq	r0, r0, r7, ror pc
    1524:	00004120 	andeq	r4, r0, r0, lsr #2
    1528:	00000000 	andeq	r0, r0, r0
    152c:	fff10010 	undefined instruction 0xfff10010
    1530:	00000f7c 	andeq	r0, r0, ip, ror pc
    1534:	00080000 	andeq	r0, r8, r0
    1538:	00000000 	andeq	r0, r0, r0
    153c:	fff10010 	undefined instruction 0xfff10010

Disassembly of section .dynstr:

00001540 <.dynstr>:
    1540:	416c6700 	cmnmi	ip, r0, lsl #14
    1544:	76697463 	strbtvc	r7, [r9], -r3, ror #8
    1548:	78655465 	stmdavc	r5!, {r0, r2, r5, r6, sl, ip, lr}^
    154c:	65727574 	ldrbvs	r7, [r2, #-1396]!	; 0x574
    1550:	615f5f00 	cmpvs	pc, r0, lsl #30
    1554:	69626165 	stmdbvs	r2!, {r0, r2, r5, r6, r8, sp, lr}^
    1558:	776e755f 	undefined instruction 0x776e755f
    155c:	5f646e69 	svcpl	0x00646e69
    1560:	5f707063 	svcpl	0x00707063
    1564:	00307270 	eorseq	r7, r0, r0, ror r2
    1568:	74416c67 	strbvc	r6, [r1], #-3175	; 0xc67
    156c:	68636174 	stmdavs	r3!, {r2, r4, r5, r6, r8, sp, lr}^
    1570:	64616853 	strbtvs	r6, [r1], #-2131	; 0x853
    1574:	67007265 	strvs	r7, [r0, -r5, ror #4]
    1578:	6e69426c 	cdpvs	2, 6, cr4, cr9, cr12, {3}
    157c:	74744164 	ldrbtvc	r4, [r4], #-356	; 0x164
    1580:	4c626972 	stclmi	9, cr6, [r2], #-456	; 0xfffffe38
    1584:	7461636f 	strbtvc	r6, [r1], #-879	; 0x36f
    1588:	006e6f69 	rsbeq	r6, lr, r9, ror #30
    158c:	69426c67 	stmdbvs	r2, {r0, r1, r2, r5, r6, sl, fp, sp, lr}^
    1590:	7542646e 	strbvc	r6, [r2, #-1134]	; 0x46e
    1594:	72656666 	rsbvc	r6, r5, #106954752	; 0x6600000
    1598:	426c6700 	rsbmi	r6, ip, #0, 14
    159c:	46646e69 	strbtmi	r6, [r4], -r9, ror #28
    15a0:	656d6172 	strbvs	r6, [sp, #-370]!	; 0x172
    15a4:	66667562 	strbtvs	r7, [r6], -r2, ror #10
    15a8:	67007265 	strvs	r7, [r0, -r5, ror #4]
    15ac:	6e69426c 	cdpvs	2, 6, cr4, cr9, cr12, {3}
    15b0:	6e655264 	cdpvs	2, 6, cr5, cr5, cr4, {3}
    15b4:	62726564 	rsbsvs	r6, r2, #100, 10	; 0x19000000
    15b8:	65666675 	strbvs	r6, [r6, #-1653]!	; 0x675
    15bc:	6c670072 	stclvs	0, cr0, [r7], #-456	; 0xfffffe38
    15c0:	646e6942 	strbtvs	r6, [lr], #-2370	; 0x942
    15c4:	74786554 	ldrbtvc	r6, [r8], #-1364	; 0x554
    15c8:	00657275 	rsbeq	r7, r5, r5, ror r2
    15cc:	6c426c67 	mcrrvs	12, 6, r6, r2, cr7
    15d0:	43646e65 	cmnmi	r4, #1616	; 0x650
    15d4:	726f6c6f 	rsbvc	r6, pc, #28416	; 0x6f00
    15d8:	426c6700 	rsbmi	r6, ip, #0, 14
    15dc:	646e656c 	strbtvs	r6, [lr], #-1388	; 0x56c
    15e0:	61757145 	cmnvs	r5, r5, asr #2
    15e4:	6e6f6974 	mcrvs	9, 3, r6, cr15, cr4, {3}
    15e8:	426c6700 	rsbmi	r6, ip, #0, 14
    15ec:	646e656c 	strbtvs	r6, [lr], #-1388	; 0x56c
    15f0:	61757145 	cmnvs	r5, r5, asr #2
    15f4:	6e6f6974 	mcrvs	9, 3, r6, cr15, cr4, {3}
    15f8:	61706553 	cmnvs	r0, r3, asr r5
    15fc:	65746172 	ldrbvs	r6, [r4, #-370]!	; 0x172
    1600:	426c6700 	rsbmi	r6, ip, #0, 14
    1604:	646e656c 	strbtvs	r6, [lr], #-1388	; 0x56c
    1608:	636e7546 	cmnvs	lr, #293601280	; 0x11800000
    160c:	426c6700 	rsbmi	r6, ip, #0, 14
    1610:	646e656c 	strbtvs	r6, [lr], #-1388	; 0x56c
    1614:	636e7546 	cmnvs	lr, #293601280	; 0x11800000
    1618:	61706553 	cmnvs	r0, r3, asr r5
    161c:	65746172 	ldrbvs	r6, [r4, #-370]!	; 0x172
    1620:	426c6700 	rsbmi	r6, ip, #0, 14
    1624:	65666675 	strbvs	r6, [r6, #-1653]!	; 0x675
    1628:	74614472 	strbtvc	r4, [r1], #-1138	; 0x472
    162c:	6c670061 	stclvs	0, cr0, [r7], #-388	; 0xfffffe7c
    1630:	66667542 	strbtvs	r7, [r6], -r2, asr #10
    1634:	75537265 	ldrbvc	r7, [r3, #-613]	; 0x265
    1638:	74614462 	strbtvc	r4, [r1], #-1122	; 0x462
    163c:	6c670061 	stclvs	0, cr0, [r7], #-388	; 0xfffffe7c
    1640:	63656843 	cmnvs	r5, #4390912	; 0x430000
    1644:	6172466b 	cmnvs	r2, fp, ror #12
    1648:	7562656d 	strbvc	r6, [r2, #-1389]!	; 0x56d
    164c:	72656666 	rsbvc	r6, r5, #106954752	; 0x6600000
    1650:	74617453 	strbtvc	r7, [r1], #-1107	; 0x453
    1654:	67007375 	smlsdxvs	r0, r5, r3, r7
    1658:	656c436c 	strbvs	r4, [ip, #-876]!	; 0x36c
    165c:	67007261 	strvs	r7, [r0, -r1, ror #4]
    1660:	656c436c 	strbvs	r4, [ip, #-876]!	; 0x36c
    1664:	6f437261 	svcvs	0x00437261
    1668:	00726f6c 	rsbseq	r6, r2, ip, ror #30
    166c:	6c436c67 	mcrrvs	12, 6, r6, r3, cr7
    1670:	44726165 	ldrbtmi	r6, [r2], #-357	; 0x165
    1674:	68747065 	ldmdavs	r4!, {r0, r2, r5, r6, ip, sp, lr}^
    1678:	6c670066 	stclvs	0, cr0, [r7], #-408	; 0xfffffe68
    167c:	61656c43 	cmnvs	r5, r3, asr #24
    1680:	65745372 	ldrbvs	r5, [r4, #-882]!	; 0x372
    1684:	6c69636e 	stclvs	3, cr6, [r9], #-440	; 0xfffffe48
    1688:	436c6700 	cmnmi	ip, #0, 14
    168c:	726f6c6f 	rsbvc	r6, pc, #28416	; 0x6f00
    1690:	6b73614d 	blvs	1cd9bcc <_stack+0x1c59bcc>
    1694:	436c6700 	cmnmi	ip, #0, 14
    1698:	69706d6f 	ldmdbvs	r0!, {r0, r1, r2, r3, r5, r6, r8, sl, fp, sp, lr}^
    169c:	6853656c 	ldmdavs	r3, {r2, r3, r5, r6, r8, sl, sp, lr}^
    16a0:	72656461 	rsbvc	r6, r5, #1627389952	; 0x61000000
    16a4:	436c6700 	cmnmi	ip, #0, 14
    16a8:	72706d6f 	rsbsvc	r6, r0, #7104	; 0x1bc0
    16ac:	65737365 	ldrbvs	r7, [r3, #-869]!	; 0x365
    16b0:	78655464 	stmdavc	r5!, {r2, r5, r6, sl, ip, lr}^
    16b4:	67616d49 	strbvs	r6, [r1, -r9, asr #26]!
    16b8:	00443265 	subeq	r3, r4, r5, ror #4
    16bc:	6f436c67 	svcvs	0x00436c67
    16c0:	6572706d 	ldrbvs	r7, [r2, #-109]!	; 0x6d
    16c4:	64657373 	strbtvs	r7, [r5], #-883	; 0x373
    16c8:	53786554 	cmnpl	r8, #84, 10	; 0x15000000
    16cc:	6d496275 	sfmvs	f6, 2, [r9, #-468]	; 0xfffffe2c
    16d0:	32656761 	rsbcc	r6, r5, #25427968	; 0x1840000
    16d4:	6c670044 	stclvs	0, cr0, [r7], #-272	; 0xfffffef0
    16d8:	79706f43 	ldmdbvc	r0!, {r0, r1, r6, r8, r9, sl, fp, sp, lr}^
    16dc:	49786554 	ldmdbmi	r8!, {r2, r4, r6, r8, sl, sp, lr}^
    16e0:	6567616d 	strbvs	r6, [r7, #-365]!	; 0x16d
    16e4:	67004432 	smladxvs	r0, r2, r4, r4
    16e8:	706f436c 	rsbvc	r4, pc, ip, ror #6
    16ec:	78655479 	stmdavc	r5!, {r0, r3, r4, r5, r6, sl, ip, lr}^
    16f0:	49627553 	stmdbmi	r2!, {r0, r1, r4, r6, r8, sl, ip, sp, lr}^
    16f4:	6567616d 	strbvs	r6, [r7, #-365]!	; 0x16d
    16f8:	67004432 	smladxvs	r0, r2, r4, r4
    16fc:	6572436c 	ldrbvs	r4, [r2, #-876]!	; 0x36c
    1700:	50657461 	rsbpl	r7, r5, r1, ror #8
    1704:	72676f72 	rsbvc	r6, r7, #456	; 0x1c8
    1708:	67006d61 	strvs	r6, [r0, -r1, ror #26]
    170c:	6572436c 	ldrbvs	r4, [r2, #-876]!	; 0x36c
    1710:	53657461 	cmnpl	r5, #1627389952	; 0x61000000
    1714:	65646168 	strbvs	r6, [r4, #-360]!	; 0x168
    1718:	6c670072 	stclvs	0, cr0, [r7], #-456	; 0xfffffe38
    171c:	6c6c7543 	cfstr64vs	mvdx7, [ip], #-268	; 0xfffffef4
    1720:	65636146 	strbvs	r6, [r3, #-326]!	; 0x146
    1724:	446c6700 	strbtmi	r6, [ip], #-1792	; 0x700
    1728:	74656c65 	strbtvc	r6, [r5], #-3173	; 0xc65
    172c:	66754265 	ldrbtvs	r4, [r5], -r5, ror #4
    1730:	73726566 	cmnvc	r2, #427819008	; 0x19800000
    1734:	446c6700 	strbtmi	r6, [ip], #-1792	; 0x700
    1738:	74656c65 	strbtvc	r6, [r5], #-3173	; 0xc65
    173c:	61724665 	cmnvs	r2, r5, ror #12
    1740:	7562656d 	strbvc	r6, [r2, #-1389]!	; 0x56d
    1744:	72656666 	rsbvc	r6, r5, #106954752	; 0x6600000
    1748:	6c670073 	stclvs	0, cr0, [r7], #-460	; 0xfffffe34
    174c:	656c6544 	strbvs	r6, [ip, #-1348]!	; 0x544
    1750:	72506574 	subsvc	r6, r0, #116, 10	; 0x1d000000
    1754:	6172676f 	cmnvs	r2, pc, ror #14
    1758:	6c67006d 	stclvs	0, cr0, [r7], #-436	; 0xfffffe4c
    175c:	656c6544 	strbvs	r6, [ip, #-1348]!	; 0x544
    1760:	65526574 	ldrbvs	r6, [r2, #-1396]	; 0x574
    1764:	7265646e 	rsbvc	r6, r5, #1845493760	; 0x6e000000
    1768:	66667562 	strbtvs	r7, [r6], -r2, ror #10
    176c:	00737265 	rsbseq	r7, r3, r5, ror #4
    1770:	65446c67 	strbvs	r6, [r4, #-3175]	; 0xc67
    1774:	6574656c 	ldrbvs	r6, [r4, #-1388]!	; 0x56c
    1778:	64616853 	strbtvs	r6, [r1], #-2131	; 0x853
    177c:	67007265 	strvs	r7, [r0, -r5, ror #4]
    1780:	6c65446c 	cfstrdvs	mvd4, [r5], #-432	; 0xfffffe50
    1784:	54657465 	strbtpl	r7, [r5], #-1125	; 0x465
    1788:	75747865 	ldrbvc	r7, [r4, #-2149]!	; 0x865
    178c:	00736572 	rsbseq	r6, r3, r2, ror r5
    1790:	65446c67 	strbvs	r6, [r4, #-3175]	; 0xc67
    1794:	46687470 	undefined instruction 0x46687470
    1798:	00636e75 	rsbeq	r6, r3, r5, ror lr
    179c:	65446c67 	strbvs	r6, [r4, #-3175]	; 0xc67
    17a0:	4d687470 	cfstrdmi	mvd7, [r8, #-448]!	; 0xfffffe40
    17a4:	006b7361 	rsbeq	r7, fp, r1, ror #6
    17a8:	65446c67 	strbvs	r6, [r4, #-3175]	; 0xc67
    17ac:	52687470 	rsbpl	r7, r8, #112, 8	; 0x70000000
    17b0:	65676e61 	strbvs	r6, [r7, #-3681]!	; 0xe61
    17b4:	6c670066 	stclvs	0, cr0, [r7], #-408	; 0xfffffe68
    17b8:	61746544 	cmnvs	r4, r4, asr #10
    17bc:	68536863 	ldmdavs	r3, {r0, r1, r5, r6, fp, sp, lr}^
    17c0:	72656461 	rsbvc	r6, r5, #1627389952	; 0x61000000
    17c4:	446c6700 	strbtmi	r6, [ip], #-1792	; 0x700
    17c8:	62617369 	rsbvs	r7, r1, #-1543503871	; 0xa4000001
    17cc:	6700656c 	strvs	r6, [r0, -ip, ror #10]
    17d0:	7369446c 	cmnvc	r9, #108, 8	; 0x6c000000
    17d4:	656c6261 	strbvs	r6, [ip, #-609]!	; 0x261
    17d8:	74726556 	ldrbtvc	r6, [r2], #-1366	; 0x556
    17dc:	74417865 	strbvc	r7, [r1], #-2149	; 0x865
    17e0:	62697274 	rsbvs	r7, r9, #116, 4	; 0x40000007
    17e4:	61727241 	cmnvs	r2, r1, asr #4
    17e8:	6c670079 	stclvs	0, cr0, [r7], #-484	; 0xfffffe1c
    17ec:	77617244 	strbvc	r7, [r1, -r4, asr #4]!
    17f0:	61727241 	cmnvs	r2, r1, asr #4
    17f4:	67007379 	smlsdxvs	r0, r9, r3, r7
    17f8:	6172446c 	cmnvs	r2, ip, ror #8
    17fc:	656c4577 	strbvs	r4, [ip, #-1399]!	; 0x577
    1800:	746e656d 	strbtvc	r6, [lr], #-1389	; 0x56d
    1804:	6c670073 	stclvs	0, cr0, [r7], #-460	; 0xfffffe34
    1808:	62616e45 	rsbvs	r6, r1, #1104	; 0x450
    180c:	6700656c 	strvs	r6, [r0, -ip, ror #10]
    1810:	616e456c 	cmnvs	lr, ip, ror #10
    1814:	56656c62 	strbtpl	r6, [r5], -r2, ror #24
    1818:	65747265 	ldrbvs	r7, [r4, #-613]!	; 0x265
    181c:	74744178 	ldrbtvc	r4, [r4], #-376	; 0x178
    1820:	41626972 	smcmi	9874	; 0x2692
    1824:	79617272 	stmdbvc	r1!, {r1, r4, r5, r6, r9, ip, sp, lr}^
    1828:	466c6700 	strbtmi	r6, [ip], -r0, lsl #14
    182c:	73696e69 	cmnvc	r9, #1680	; 0x690
    1830:	6c670068 	stclvs	0, cr0, [r7], #-416	; 0xfffffe60
    1834:	73756c46 	cmnvc	r5, #17920	; 0x4600
    1838:	6c670068 	stclvs	0, cr0, [r7], #-416	; 0xfffffe60
    183c:	6d617246 	sfmvs	f7, 2, [r1, #-280]!	; 0xfffffee8
    1840:	66756265 	ldrbtvs	r6, [r5], -r5, ror #4
    1844:	52726566 	rsbspl	r6, r2, #427819008	; 0x19800000
    1848:	65646e65 	strbvs	r6, [r4, #-3685]!	; 0xe65
    184c:	66756272 	undefined instruction 0x66756272
    1850:	00726566 	rsbseq	r6, r2, r6, ror #10
    1854:	72466c67 	subvc	r6, r6, #26368	; 0x6700
    1858:	62656d61 	rsbvs	r6, r5, #6208	; 0x1840
    185c:	65666675 	strbvs	r6, [r6, #-1653]!	; 0x675
    1860:	78655472 	stmdavc	r5!, {r1, r4, r5, r6, sl, ip, lr}^
    1864:	65727574 	ldrbvs	r7, [r2, #-1396]!	; 0x574
    1868:	67004432 	smladxvs	r0, r2, r4, r4
    186c:	6f72466c 	svcvs	0x0072466c
    1870:	6146746e 	cmpvs	r6, lr, ror #8
    1874:	67006563 	strvs	r6, [r0, -r3, ror #10]
    1878:	6e65476c 	cdpvs	7, 6, cr4, cr5, cr12, {3}
    187c:	66667542 	strbtvs	r7, [r6], -r2, asr #10
    1880:	00737265 	rsbseq	r7, r3, r5, ror #4
    1884:	65476c67 	strbvs	r6, [r7, #-3175]	; 0xc67
    1888:	6172656e 	cmnvs	r2, lr, ror #10
    188c:	694d6574 	stmdbvs	sp, {r2, r4, r5, r6, r8, sl, sp, lr}^
    1890:	70616d70 	rsbvc	r6, r1, r0, ror sp
    1894:	476c6700 	strbmi	r6, [ip, -r0, lsl #14]!
    1898:	72466e65 	subvc	r6, r6, #1616	; 0x650
    189c:	62656d61 	rsbvs	r6, r5, #6208	; 0x1840
    18a0:	65666675 	strbvs	r6, [r6, #-1653]!	; 0x675
    18a4:	67007372 	smlsdxvs	r0, r2, r3, r7
    18a8:	6e65476c 	cdpvs	7, 6, cr4, cr5, cr12, {3}
    18ac:	646e6552 	strbtvs	r6, [lr], #-1362	; 0x552
    18b0:	75627265 	strbvc	r7, [r2, #-613]!	; 0x265
    18b4:	72656666 	rsbvc	r6, r5, #106954752	; 0x6600000
    18b8:	6c670073 	stclvs	0, cr0, [r7], #-460	; 0xfffffe34
    18bc:	546e6547 	strbtpl	r6, [lr], #-1351	; 0x547
    18c0:	75747865 	ldrbvc	r7, [r4, #-2149]!	; 0x865
    18c4:	00736572 	rsbseq	r6, r3, r2, ror r5
    18c8:	65476c67 	strbvs	r6, [r7, #-3175]	; 0xc67
    18cc:	74634174 	strbtvc	r4, [r3], #-372	; 0x174
    18d0:	41657669 	cmnmi	r5, r9, ror #12
    18d4:	69727474 	ldmdbvs	r2!, {r2, r4, r5, r6, sl, ip, sp, lr}^
    18d8:	6c670062 	stclvs	0, cr0, [r7], #-392	; 0xfffffe78
    18dc:	41746547 	cmnmi	r4, r7, asr #10
    18e0:	76697463 	strbtvc	r7, [r9], -r3, ror #8
    18e4:	696e5565 	stmdbvs	lr!, {r0, r2, r5, r6, r8, sl, ip, lr}^
    18e8:	6d726f66 	ldclvs	15, cr6, [r2, #-408]!	; 0xfffffe68
    18ec:	476c6700 	strbmi	r6, [ip, -r0, lsl #14]!
    18f0:	74417465 	strbvc	r7, [r1], #-1125	; 0x465
    18f4:	68636174 	stmdavs	r3!, {r2, r4, r5, r6, r8, sp, lr}^
    18f8:	68536465 	ldmdavs	r3, {r0, r2, r5, r6, sl, sp, lr}^
    18fc:	72656461 	rsbvc	r6, r5, #1627389952	; 0x61000000
    1900:	6c670073 	stclvs	0, cr0, [r7], #-460	; 0xfffffe34
    1904:	41746547 	cmnmi	r4, r7, asr #10
    1908:	69727474 	ldmdbvs	r2!, {r2, r4, r5, r6, sl, ip, sp, lr}^
    190c:	636f4c62 	cmnvs	pc, #25088	; 0x6200
    1910:	6f697461 	svcvs	0x00697461
    1914:	6c67006e 	stclvs	0, cr0, [r7], #-440	; 0xfffffe48
    1918:	42746547 	rsbsmi	r6, r4, #297795584	; 0x11c00000
    191c:	656c6f6f 	strbvs	r6, [ip, #-3951]!	; 0xf6f
    1920:	00766e61 	rsbseq	r6, r6, r1, ror #28
    1924:	65476c67 	strbvs	r6, [r7, #-3175]	; 0xc67
    1928:	66754274 	undefined instruction 0x66754274
    192c:	50726566 	rsbspl	r6, r2, r6, ror #10
    1930:	6d617261 	sfmvs	f7, 2, [r1, #-388]!	; 0xfffffe7c
    1934:	72657465 	rsbvc	r7, r5, #1694498816	; 0x65000000
    1938:	67007669 	strvs	r7, [r0, -r9, ror #12]
    193c:	7465476c 	strbtvc	r4, [r5], #-1900	; 0x76c
    1940:	6f727245 	svcvs	0x00727245
    1944:	6c670072 	stclvs	0, cr0, [r7], #-456	; 0xfffffe38
    1948:	46746547 	ldrbtmi	r6, [r4], -r7, asr #10
    194c:	74616f6c 	strbtvc	r6, [r1], #-3948	; 0xf6c
    1950:	6c670076 	stclvs	0, cr0, [r7], #-472	; 0xfffffe28
    1954:	46746547 	ldrbtmi	r6, [r4], -r7, asr #10
    1958:	656d6172 	strbvs	r6, [sp, #-370]!	; 0x172
    195c:	66667562 	strbtvs	r7, [r6], -r2, ror #10
    1960:	74417265 	strbvc	r7, [r1], #-613	; 0x265
    1964:	68636174 	stmdavs	r3!, {r2, r4, r5, r6, r8, sp, lr}^
    1968:	746e656d 	strbtvc	r6, [lr], #-1389	; 0x56d
    196c:	61726150 	cmnvs	r2, r0, asr r1
    1970:	6574656d 	ldrbvs	r6, [r4, #-1389]!	; 0x56d
    1974:	00766972 	rsbseq	r6, r6, r2, ror r9
    1978:	65476c67 	strbvs	r6, [r7, #-3175]	; 0xc67
    197c:	746e4974 	strbtvc	r4, [lr], #-2420	; 0x974
    1980:	72656765 	rsbvc	r6, r5, #26476544	; 0x1940000
    1984:	6c670076 	stclvs	0, cr0, [r7], #-472	; 0xfffffe28
    1988:	50746547 	rsbspl	r6, r4, r7, asr #10
    198c:	72676f72 	rsbvc	r6, r7, #456	; 0x1c8
    1990:	76696d61 	strbtvc	r6, [r9], -r1, ror #26
    1994:	476c6700 	strbmi	r6, [ip, -r0, lsl #14]!
    1998:	72507465 	subsvc	r7, r0, #1694498816	; 0x65000000
    199c:	6172676f 	cmnvs	r2, pc, ror #14
    19a0:	666e496d 	strbtvs	r4, [lr], -sp, ror #18
    19a4:	676f4c6f 	strbvs	r4, [pc, -pc, ror #24]!
    19a8:	476c6700 	strbmi	r6, [ip, -r0, lsl #14]!
    19ac:	65527465 	ldrbvs	r7, [r2, #-1125]	; 0x465
    19b0:	7265646e 	rsbvc	r6, r5, #1845493760	; 0x6e000000
    19b4:	66667562 	strbtvs	r7, [r6], -r2, ror #10
    19b8:	61507265 	cmpvs	r0, r5, ror #4
    19bc:	656d6172 	strbvs	r6, [sp, #-370]!	; 0x172
    19c0:	69726574 	ldmdbvs	r2!, {r2, r4, r5, r6, r8, sl, sp, lr}^
    19c4:	6c670076 	stclvs	0, cr0, [r7], #-472	; 0xfffffe28
    19c8:	53746547 	cmnpl	r4, #297795584	; 0x11c00000
    19cc:	65646168 	strbvs	r6, [r4, #-360]!	; 0x168
    19d0:	00766972 	rsbseq	r6, r6, r2, ror r9
    19d4:	65476c67 	strbvs	r6, [r7, #-3175]	; 0xc67
    19d8:	61685374 	smcvs	34100	; 0x8534
    19dc:	49726564 	ldmdbmi	r2!, {r2, r5, r6, r8, sl, sp, lr}^
    19e0:	4c6f666e 	stclmi	6, cr6, [pc], #-440	; 1830 <glActiveTexture-0xd44>
    19e4:	6700676f 	strvs	r6, [r0, -pc, ror #14]
    19e8:	7465476c 	strbtvc	r4, [r5], #-1900	; 0x76c
    19ec:	64616853 	strbtvs	r6, [r1], #-2131	; 0x853
    19f0:	72507265 	subsvc	r7, r0, #1342177286	; 0x50000006
    19f4:	73696365 	cmnvc	r9, #-1811939327	; 0x94000001
    19f8:	466e6f69 	strbtmi	r6, [lr], -r9, ror #30
    19fc:	616d726f 	cmnvs	sp, pc, ror #4
    1a00:	6c670074 	stclvs	0, cr0, [r7], #-464	; 0xfffffe30
    1a04:	53746547 	cmnpl	r4, #297795584	; 0x11c00000
    1a08:	65646168 	strbvs	r6, [r4, #-360]!	; 0x168
    1a0c:	756f5372 	strbvc	r5, [pc, #-882]!	; 16a2 <glActiveTexture-0xed2>
    1a10:	00656372 	rsbeq	r6, r5, r2, ror r3
    1a14:	65476c67 	strbvs	r6, [r7, #-3175]	; 0xc67
    1a18:	72745374 	rsbsvc	r5, r4, #116, 6	; 0xd0000001
    1a1c:	00676e69 	rsbeq	r6, r7, r9, ror #28
    1a20:	65476c67 	strbvs	r6, [r7, #-3175]	; 0xc67
    1a24:	78655474 	stmdavc	r5!, {r2, r4, r5, r6, sl, ip, lr}^
    1a28:	61726150 	cmnvs	r2, r0, asr r1
    1a2c:	6574656d 	ldrbvs	r6, [r4, #-1389]!	; 0x56d
    1a30:	00766672 	rsbseq	r6, r6, r2, ror r6
    1a34:	65476c67 	strbvs	r6, [r7, #-3175]	; 0xc67
    1a38:	78655474 	stmdavc	r5!, {r2, r4, r5, r6, sl, ip, lr}^
    1a3c:	61726150 	cmnvs	r2, r0, asr r1
    1a40:	6574656d 	ldrbvs	r6, [r4, #-1389]!	; 0x56d
    1a44:	00766972 	rsbseq	r6, r6, r2, ror r9
    1a48:	65476c67 	strbvs	r6, [r7, #-3175]	; 0xc67
    1a4c:	696e5574 	stmdbvs	lr!, {r2, r4, r5, r6, r8, sl, ip, lr}^
    1a50:	6d726f66 	ldclvs	15, cr6, [r2, #-408]!	; 0xfffffe68
    1a54:	67007666 	strvs	r7, [r0, -r6, ror #12]
    1a58:	7465476c 	strbtvc	r4, [r5], #-1900	; 0x76c
    1a5c:	66696e55 	undefined instruction 0x66696e55
    1a60:	696d726f 	stmdbvs	sp!, {r0, r1, r2, r3, r5, r6, r9, ip, sp, lr}^
    1a64:	6c670076 	stclvs	0, cr0, [r7], #-472	; 0xfffffe28
    1a68:	55746547 	ldrbpl	r6, [r4, #-1351]!	; 0x547
    1a6c:	6f66696e 	svcvs	0x0066696e
    1a70:	6f4c6d72 	svcvs	0x004c6d72
    1a74:	69746163 	ldmdbvs	r4!, {r0, r1, r5, r6, r8, sp, lr}^
    1a78:	67006e6f 	strvs	r6, [r0, -pc, ror #28]
    1a7c:	7465476c 	strbtvc	r4, [r5], #-1900	; 0x76c
    1a80:	74726556 	ldrbtvc	r6, [r2], #-1366	; 0x556
    1a84:	74417865 	strbvc	r7, [r1], #-2149	; 0x865
    1a88:	62697274 	rsbvs	r7, r9, #116, 4	; 0x40000007
    1a8c:	67007666 	strvs	r7, [r0, -r6, ror #12]
    1a90:	7465476c 	strbtvc	r4, [r5], #-1900	; 0x76c
    1a94:	74726556 	ldrbtvc	r6, [r2], #-1366	; 0x556
    1a98:	74417865 	strbvc	r7, [r1], #-2149	; 0x865
    1a9c:	62697274 	rsbvs	r7, r9, #116, 4	; 0x40000007
    1aa0:	67007669 	strvs	r7, [r0, -r9, ror #12]
    1aa4:	7465476c 	strbtvc	r4, [r5], #-1900	; 0x76c
    1aa8:	74726556 	ldrbtvc	r6, [r2], #-1366	; 0x556
    1aac:	74417865 	strbvc	r7, [r1], #-2149	; 0x865
    1ab0:	62697274 	rsbvs	r7, r9, #116, 4	; 0x40000007
    1ab4:	6e696f50 	mcrvs	15, 3, r6, cr9, cr0, {2}
    1ab8:	76726574 	undefined instruction 0x76726574
    1abc:	486c6700 	stmdami	ip!, {r8, r9, sl, sp, lr}^
    1ac0:	00746e69 	rsbseq	r6, r4, r9, ror #28
    1ac4:	73496c67 	movtvc	r6, #40039	; 0x9c67
    1ac8:	66667542 	strbtvs	r7, [r6], -r2, asr #10
    1acc:	67007265 	strvs	r7, [r0, -r5, ror #4]
    1ad0:	4573496c 	ldrbmi	r4, [r3, #-2412]!	; 0x96c
    1ad4:	6c62616e 	stfvse	f6, [r2], #-440	; 0xfffffe48
    1ad8:	67006465 	strvs	r6, [r0, -r5, ror #8]
    1adc:	4673496c 	ldrbtmi	r4, [r3], -ip, ror #18
    1ae0:	656d6172 	strbvs	r6, [sp, #-370]!	; 0x172
    1ae4:	66667562 	strbtvs	r7, [r6], -r2, ror #10
    1ae8:	67007265 	strvs	r7, [r0, -r5, ror #4]
    1aec:	5073496c 	rsbspl	r4, r3, ip, ror #18
    1af0:	72676f72 	rsbvc	r6, r7, #456	; 0x1c8
    1af4:	67006d61 	strvs	r6, [r0, -r1, ror #26]
    1af8:	5273496c 	rsbspl	r4, r3, #108, 18	; 0x1b0000
    1afc:	65646e65 	strbvs	r6, [r4, #-3685]!	; 0xe65
    1b00:	66756272 	undefined instruction 0x66756272
    1b04:	00726566 	rsbseq	r6, r2, r6, ror #10
    1b08:	73496c67 	movtvc	r6, #40039	; 0x9c67
    1b0c:	64616853 	strbtvs	r6, [r1], #-2131	; 0x853
    1b10:	67007265 	strvs	r7, [r0, -r5, ror #4]
    1b14:	5473496c 	ldrbtpl	r4, [r3], #-2412	; 0x96c
    1b18:	75747865 	ldrbvc	r7, [r4, #-2149]!	; 0x865
    1b1c:	67006572 	smlsdxvs	r0, r2, r5, r6
    1b20:	6e694c6c 	cdpvs	12, 6, cr4, cr9, cr12, {3}
    1b24:	64695765 	strbtvs	r5, [r9], #-1893	; 0x765
    1b28:	67006874 	smlsdxvs	r0, r4, r8, r6
    1b2c:	6e694c6c 	cdpvs	12, 6, cr4, cr9, cr12, {3}
    1b30:	6f72506b 	svcvs	0x0072506b
    1b34:	6d617267 	sfmvs	f7, 2, [r1, #-412]!	; 0xfffffe64
    1b38:	506c6700 	rsbpl	r6, ip, r0, lsl #14
    1b3c:	6c657869 	stclvs	8, cr7, [r5], #-420	; 0xfffffe5c
    1b40:	726f7453 	rsbvc	r7, pc, #1392508928	; 0x53000000
    1b44:	67006965 	strvs	r6, [r0, -r5, ror #18]
    1b48:	6c6f506c 	stclvs	0, cr5, [pc], #-432	; 19a0 <glActiveTexture-0xbd4>
    1b4c:	6e6f6779 	mcrvs	7, 3, r6, cr15, cr9, {3}
    1b50:	7366664f 	cmnvc	r6, #82837504	; 0x4f00000
    1b54:	67007465 	strvs	r7, [r0, -r5, ror #8]
    1b58:	6165526c 	cmnvs	r5, ip, ror #4
    1b5c:	78695064 	stmdavc	r9!, {r2, r5, r6, ip, lr}^
    1b60:	00736c65 	rsbseq	r6, r3, r5, ror #24
    1b64:	65526c67 	ldrbvs	r6, [r2, #-3175]	; 0xc67
    1b68:	7361656c 	cmnvc	r1, #108, 10	; 0x1b000000
    1b6c:	61685365 	cmnvs	r8, r5, ror #6
    1b70:	43726564 	cmnmi	r2, #100, 10	; 0x19000000
    1b74:	69706d6f 	ldmdbvs	r0!, {r0, r1, r2, r3, r5, r6, r8, sl, fp, sp, lr}^
    1b78:	0072656c 	rsbseq	r6, r2, ip, ror #10
    1b7c:	65526c67 	ldrbvs	r6, [r2, #-3175]	; 0xc67
    1b80:	7265646e 	rsbvc	r6, r5, #1845493760	; 0x6e000000
    1b84:	66667562 	strbtvs	r7, [r6], -r2, ror #10
    1b88:	74537265 	ldrbvc	r7, [r3], #-613	; 0x265
    1b8c:	6761726f 	strbvs	r7, [r1, -pc, ror #4]!
    1b90:	6c670065 	stclvs	0, cr0, [r7], #-404	; 0xfffffe6c
    1b94:	706d6153 	rsbvc	r6, sp, r3, asr r1
    1b98:	6f43656c 	svcvs	0x0043656c
    1b9c:	61726576 	cmnvs	r2, r6, ror r5
    1ba0:	67006567 	strvs	r6, [r0, -r7, ror #10]
    1ba4:	6963536c 	stmdbvs	r3!, {r2, r3, r5, r6, r8, r9, ip, lr}^
    1ba8:	726f7373 	rsbvc	r7, pc, #-872415231	; 0xcc000001
    1bac:	536c6700 	cmnpl	ip, #0, 14
    1bb0:	65646168 	strbvs	r6, [r4, #-360]!	; 0x168
    1bb4:	6e694272 	mcrvs	2, 3, r4, cr9, cr2, {3}
    1bb8:	00797261 	rsbseq	r7, r9, r1, ror #4
    1bbc:	68536c67 	ldmdavs	r3, {r0, r1, r2, r5, r6, sl, fp, sp, lr}^
    1bc0:	72656461 	rsbvc	r6, r5, #1627389952	; 0x61000000
    1bc4:	72756f53 	rsbsvc	r6, r5, #332	; 0x14c
    1bc8:	67006563 	strvs	r6, [r0, -r3, ror #10]
    1bcc:	6574536c 	ldrbvs	r5, [r4, #-876]!	; 0x36c
    1bd0:	6c69636e 	stclvs	3, cr6, [r9], #-440	; 0xfffffe48
    1bd4:	636e7546 	cmnvs	lr, #293601280	; 0x11800000
    1bd8:	536c6700 	cmnpl	ip, #0, 14
    1bdc:	636e6574 	cmnvs	lr, #116, 10	; 0x1d000000
    1be0:	75466c69 	strbvc	r6, [r6, #-3177]	; 0xc69
    1be4:	6553636e 	ldrbvs	r6, [r3, #-878]	; 0x36e
    1be8:	61726170 	cmnvs	r2, r0, ror r1
    1bec:	67006574 	smlsdxvs	r0, r4, r5, r6
    1bf0:	6574536c 	ldrbvs	r5, [r4, #-876]!	; 0x36c
    1bf4:	6c69636e 	stclvs	3, cr6, [r9], #-440	; 0xfffffe48
    1bf8:	6b73614d 	blvs	1cda134 <_stack+0x1c5a134>
    1bfc:	536c6700 	cmnpl	ip, #0, 14
    1c00:	636e6574 	cmnvs	lr, #116, 10	; 0x1d000000
    1c04:	614d6c69 	cmpvs	sp, r9, ror #24
    1c08:	65536b73 	ldrbvs	r6, [r3, #-2931]	; 0xb73
    1c0c:	61726170 	cmnvs	r2, r0, ror r1
    1c10:	67006574 	smlsdxvs	r0, r4, r5, r6
    1c14:	6574536c 	ldrbvs	r5, [r4, #-876]!	; 0x36c
    1c18:	6c69636e 	stclvs	3, cr6, [r9], #-440	; 0xfffffe48
    1c1c:	6700704f 	strvs	r7, [r0, -pc, asr #32]
    1c20:	6574536c 	ldrbvs	r5, [r4, #-876]!	; 0x36c
    1c24:	6c69636e 	stclvs	3, cr6, [r9], #-440	; 0xfffffe48
    1c28:	6553704f 	ldrbvs	r7, [r3, #-79]	; 0x4f
    1c2c:	61726170 	cmnvs	r2, r0, ror r1
    1c30:	67006574 	smlsdxvs	r0, r4, r5, r6
    1c34:	7865546c 	stmdavc	r5!, {r2, r3, r5, r6, sl, ip, lr}^
    1c38:	67616d49 	strbvs	r6, [r1, -r9, asr #26]!
    1c3c:	00443265 	subeq	r3, r4, r5, ror #4
    1c40:	65546c67 	ldrbvs	r6, [r4, #-3175]	; 0xc67
    1c44:	72615078 	rsbvc	r5, r1, #120	; 0x78
    1c48:	74656d61 	strbtvc	r6, [r5], #-3425	; 0xd61
    1c4c:	00667265 	rsbeq	r7, r6, r5, ror #4
    1c50:	65546c67 	ldrbvs	r6, [r4, #-3175]	; 0xc67
    1c54:	72615078 	rsbvc	r5, r1, #120	; 0x78
    1c58:	74656d61 	strbtvc	r6, [r5], #-3425	; 0xd61
    1c5c:	76667265 	strbtvc	r7, [r6], -r5, ror #4
    1c60:	546c6700 	strbtpl	r6, [ip], #-1792	; 0x700
    1c64:	61507865 	cmpvs	r0, r5, ror #16
    1c68:	656d6172 	strbvs	r6, [sp, #-370]!	; 0x172
    1c6c:	69726574 	ldmdbvs	r2!, {r2, r4, r5, r6, r8, sl, sp, lr}^
    1c70:	546c6700 	strbtpl	r6, [ip], #-1792	; 0x700
    1c74:	61507865 	cmpvs	r0, r5, ror #16
    1c78:	656d6172 	strbvs	r6, [sp, #-370]!	; 0x172
    1c7c:	69726574 	ldmdbvs	r2!, {r2, r4, r5, r6, r8, sl, sp, lr}^
    1c80:	6c670076 	stclvs	0, cr0, [r7], #-472	; 0xfffffe28
    1c84:	53786554 	cmnpl	r8, #84, 10	; 0x15000000
    1c88:	6d496275 	sfmvs	f6, 2, [r9, #-468]	; 0xfffffe2c
    1c8c:	32656761 	rsbcc	r6, r5, #25427968	; 0x1840000
    1c90:	6c670044 	stclvs	0, cr0, [r7], #-272	; 0xfffffef0
    1c94:	66696e55 	undefined instruction 0x66696e55
    1c98:	316d726f 	cmncc	sp, pc, ror #4
    1c9c:	6c670066 	stclvs	0, cr0, [r7], #-408	; 0xfffffe68
    1ca0:	66696e55 	undefined instruction 0x66696e55
    1ca4:	316d726f 	cmncc	sp, pc, ror #4
    1ca8:	67007666 	strvs	r7, [r0, -r6, ror #12]
    1cac:	696e556c 	stmdbvs	lr!, {r2, r3, r5, r6, r8, sl, ip, lr}^
    1cb0:	6d726f66 	ldclvs	15, cr6, [r2, #-408]!	; 0xfffffe68
    1cb4:	67006931 	smladxvs	r0, r1, r9, r6
    1cb8:	696e556c 	stmdbvs	lr!, {r2, r3, r5, r6, r8, sl, ip, lr}^
    1cbc:	6d726f66 	ldclvs	15, cr6, [r2, #-408]!	; 0xfffffe68
    1cc0:	00766931 	rsbseq	r6, r6, r1, lsr r9
    1cc4:	6e556c67 	cdpvs	12, 5, cr6, cr5, cr7, {3}
    1cc8:	726f6669 	rsbvc	r6, pc, #110100480	; 0x6900000
    1ccc:	0066326d 	rsbeq	r3, r6, sp, ror #4
    1cd0:	6e556c67 	cdpvs	12, 5, cr6, cr5, cr7, {3}
    1cd4:	726f6669 	rsbvc	r6, pc, #110100480	; 0x6900000
    1cd8:	7666326d 	strbtvc	r3, [r6], -sp, ror #4
    1cdc:	556c6700 	strbpl	r6, [ip, #-1792]!	; 0x700
    1ce0:	6f66696e 	svcvs	0x0066696e
    1ce4:	69326d72 	ldmdbvs	r2!, {r1, r4, r5, r6, r8, sl, fp, sp, lr}
    1ce8:	556c6700 	strbpl	r6, [ip, #-1792]!	; 0x700
    1cec:	6f66696e 	svcvs	0x0066696e
    1cf0:	69326d72 	ldmdbvs	r2!, {r1, r4, r5, r6, r8, sl, fp, sp, lr}
    1cf4:	6c670076 	stclvs	0, cr0, [r7], #-472	; 0xfffffe28
    1cf8:	66696e55 	undefined instruction 0x66696e55
    1cfc:	336d726f 	cmncc	sp, #-268435450	; 0xf0000006
    1d00:	6c670066 	stclvs	0, cr0, [r7], #-408	; 0xfffffe68
    1d04:	66696e55 	undefined instruction 0x66696e55
    1d08:	336d726f 	cmncc	sp, #-268435450	; 0xf0000006
    1d0c:	67007666 	strvs	r7, [r0, -r6, ror #12]
    1d10:	696e556c 	stmdbvs	lr!, {r2, r3, r5, r6, r8, sl, ip, lr}^
    1d14:	6d726f66 	ldclvs	15, cr6, [r2, #-408]!	; 0xfffffe68
    1d18:	67006933 	smladxvs	r0, r3, r9, r6
    1d1c:	696e556c 	stmdbvs	lr!, {r2, r3, r5, r6, r8, sl, ip, lr}^
    1d20:	6d726f66 	ldclvs	15, cr6, [r2, #-408]!	; 0xfffffe68
    1d24:	00766933 	rsbseq	r6, r6, r3, lsr r9
    1d28:	6e556c67 	cdpvs	12, 5, cr6, cr5, cr7, {3}
    1d2c:	726f6669 	rsbvc	r6, pc, #110100480	; 0x6900000
    1d30:	0066346d 	rsbeq	r3, r6, sp, ror #8
    1d34:	6e556c67 	cdpvs	12, 5, cr6, cr5, cr7, {3}
    1d38:	726f6669 	rsbvc	r6, pc, #110100480	; 0x6900000
    1d3c:	7666346d 	strbtvc	r3, [r6], -sp, ror #8
    1d40:	556c6700 	strbpl	r6, [ip, #-1792]!	; 0x700
    1d44:	6f66696e 	svcvs	0x0066696e
    1d48:	69346d72 	ldmdbvs	r4!, {r1, r4, r5, r6, r8, sl, fp, sp, lr}
    1d4c:	556c6700 	strbpl	r6, [ip, #-1792]!	; 0x700
    1d50:	6f66696e 	svcvs	0x0066696e
    1d54:	69346d72 	ldmdbvs	r4!, {r1, r4, r5, r6, r8, sl, fp, sp, lr}
    1d58:	6c670076 	stclvs	0, cr0, [r7], #-472	; 0xfffffe28
    1d5c:	66696e55 	undefined instruction 0x66696e55
    1d60:	4d6d726f 	sfmmi	f7, 2, [sp, #-444]!	; 0xfffffe44
    1d64:	69727461 	ldmdbvs	r2!, {r0, r5, r6, sl, ip, sp, lr}^
    1d68:	76663278 	undefined instruction 0x76663278
    1d6c:	556c6700 	strbpl	r6, [ip, #-1792]!	; 0x700
    1d70:	6f66696e 	svcvs	0x0066696e
    1d74:	614d6d72 	cmpvs	sp, r2, ror sp
    1d78:	78697274 	stmdavc	r9!, {r2, r4, r5, r6, r9, ip, sp, lr}^
    1d7c:	00766633 	rsbseq	r6, r6, r3, lsr r6
    1d80:	6e556c67 	cdpvs	12, 5, cr6, cr5, cr7, {3}
    1d84:	726f6669 	rsbvc	r6, pc, #110100480	; 0x6900000
    1d88:	74614d6d 	strbtvc	r4, [r1], #-3437	; 0xd6d
    1d8c:	34786972 	ldrbtcc	r6, [r8], #-2418	; 0x972
    1d90:	67007666 	strvs	r7, [r0, -r6, ror #12]
    1d94:	6573556c 	ldrbvs	r5, [r3, #-1388]!	; 0x56c
    1d98:	676f7250 	undefined instruction 0x676f7250
    1d9c:	006d6172 	rsbeq	r6, sp, r2, ror r1
    1da0:	61566c67 	cmpvs	r6, r7, ror #24
    1da4:	6164696c 	cmnvs	r4, ip, ror #18
    1da8:	72506574 	subsvc	r6, r0, #116, 10	; 0x1d000000
    1dac:	6172676f 	cmnvs	r2, pc, ror #14
    1db0:	6c67006d 	stclvs	0, cr0, [r7], #-436	; 0xfffffe4c
    1db4:	74726556 	ldrbtvc	r6, [r2], #-1366	; 0x556
    1db8:	74417865 	strbvc	r7, [r1], #-2149	; 0x865
    1dbc:	62697274 	rsbvs	r7, r9, #116, 4	; 0x40000007
    1dc0:	67006631 	smladxvs	r0, r1, r6, r6
    1dc4:	7265566c 	rsbvc	r5, r5, #108, 12	; 0x6c00000
    1dc8:	41786574 	cmnmi	r8, r4, ror r5
    1dcc:	69727474 	ldmdbvs	r2!, {r2, r4, r5, r6, sl, ip, sp, lr}^
    1dd0:	76663162 	strbtvc	r3, [r6], -r2, ror #2
    1dd4:	566c6700 	strbtpl	r6, [ip], -r0, lsl #14
    1dd8:	65747265 	ldrbvs	r7, [r4, #-613]!	; 0x265
    1ddc:	74744178 	ldrbtvc	r4, [r4], #-376	; 0x178
    1de0:	32626972 	rsbcc	r6, r2, #1867776	; 0x1c8000
    1de4:	6c670066 	stclvs	0, cr0, [r7], #-408	; 0xfffffe68
    1de8:	74726556 	ldrbtvc	r6, [r2], #-1366	; 0x556
    1dec:	74417865 	strbvc	r7, [r1], #-2149	; 0x865
    1df0:	62697274 	rsbvs	r7, r9, #116, 4	; 0x40000007
    1df4:	00766632 	rsbseq	r6, r6, r2, lsr r6
    1df8:	65566c67 	ldrbvs	r6, [r6, #-3175]	; 0xc67
    1dfc:	78657472 	stmdavc	r5!, {r1, r4, r5, r6, sl, ip, sp, lr}^
    1e00:	72747441 	rsbsvc	r7, r4, #1090519040	; 0x41000000
    1e04:	66336269 	ldrtvs	r6, [r3], -r9, ror #4
    1e08:	566c6700 	strbtpl	r6, [ip], -r0, lsl #14
    1e0c:	65747265 	ldrbvs	r7, [r4, #-613]!	; 0x265
    1e10:	74744178 	ldrbtvc	r4, [r4], #-376	; 0x178
    1e14:	33626972 	cmncc	r2, #1867776	; 0x1c8000
    1e18:	67007666 	strvs	r7, [r0, -r6, ror #12]
    1e1c:	7265566c 	rsbvc	r5, r5, #108, 12	; 0x6c00000
    1e20:	41786574 	cmnmi	r8, r4, ror r5
    1e24:	69727474 	ldmdbvs	r2!, {r2, r4, r5, r6, sl, ip, sp, lr}^
    1e28:	00663462 	rsbeq	r3, r6, r2, ror #8
    1e2c:	65566c67 	ldrbvs	r6, [r6, #-3175]	; 0xc67
    1e30:	78657472 	stmdavc	r5!, {r1, r4, r5, r6, sl, ip, sp, lr}^
    1e34:	72747441 	rsbsvc	r7, r4, #1090519040	; 0x41000000
    1e38:	66346269 	ldrtvs	r6, [r4], -r9, ror #4
    1e3c:	6c670076 	stclvs	0, cr0, [r7], #-472	; 0xfffffe28
    1e40:	74726556 	ldrbtvc	r6, [r2], #-1366	; 0x556
    1e44:	74417865 	strbvc	r7, [r1], #-2149	; 0x865
    1e48:	62697274 	rsbvs	r7, r9, #116, 4	; 0x40000007
    1e4c:	6e696f50 	mcrvs	15, 3, r6, cr9, cr0, {2}
    1e50:	00726574 	rsbseq	r6, r2, r4, ror r5
    1e54:	69566c67 	ldmdbvs	r6, {r0, r1, r2, r5, r6, sl, fp, sp, lr}^
    1e58:	6f707765 	svcvs	0x00707765
    1e5c:	67007472 	smlsdxvs	r0, r2, r4, r7
    1e60:	7465476c 	strbtvc	r4, [r5], #-1900	; 0x76c
    1e64:	676f7250 	undefined instruction 0x676f7250
    1e68:	426d6172 	rsbmi	r6, sp, #-2147483620	; 0x8000001c
    1e6c:	72616e69 	rsbvc	r6, r1, #1680	; 0x690
    1e70:	53454f79 	movtpl	r4, #24441	; 0x5f79
    1e74:	506c6700 	rsbpl	r6, ip, r0, lsl #14
    1e78:	72676f72 	rsbvc	r6, r7, #456	; 0x1c8
    1e7c:	69426d61 	stmdbvs	r2, {r0, r5, r6, r8, sl, fp, sp, lr}^
    1e80:	7972616e 	ldmdbvc	r2!, {r1, r2, r3, r5, r6, r8, sp, lr}^
    1e84:	0053454f 	subseq	r4, r3, pc, asr #10
    1e88:	614d6c67 	cmpvs	sp, r7, ror #24
    1e8c:	66754270 	undefined instruction 0x66754270
    1e90:	4f726566 	svcmi	0x00726566
    1e94:	67005345 	strvs	r5, [r0, -r5, asr #6]
    1e98:	6d6e556c 	cfstr64vs	mvdx5, [lr, #-432]!	; 0xfffffe50
    1e9c:	75427061 	strbvc	r7, [r2, #-97]	; 0x61
    1ea0:	72656666 	rsbvc	r6, r5, #106954752	; 0x6600000
    1ea4:	0053454f 	subseq	r4, r3, pc, asr #10
    1ea8:	65476c67 	strbvs	r6, [r7, #-3175]	; 0xc67
    1eac:	66754274 	undefined instruction 0x66754274
    1eb0:	50726566 	rsbspl	r6, r2, r6, ror #10
    1eb4:	746e696f 	strbtvc	r6, [lr], #-2415	; 0x96f
    1eb8:	4f767265 	svcmi	0x00767265
    1ebc:	67005345 	strvs	r5, [r0, -r5, asr #6]
    1ec0:	7865546c 	stmdavc	r5!, {r2, r3, r5, r6, sl, ip, lr}^
    1ec4:	67616d49 	strbvs	r6, [r1, -r9, asr #26]!
    1ec8:	4f443365 	svcmi	0x00443365
    1ecc:	67005345 	strvs	r5, [r0, -r5, asr #6]
    1ed0:	7865546c 	stmdavc	r5!, {r2, r3, r5, r6, sl, ip, lr}^
    1ed4:	49627553 	stmdbmi	r2!, {r0, r1, r4, r6, r8, sl, ip, sp, lr}^
    1ed8:	6567616d 	strbvs	r6, [r7, #-365]!	; 0x16d
    1edc:	454f4433 	strbmi	r4, [pc, #-1075]	; 1ab1 <glActiveTexture-0xac3>
    1ee0:	6c670053 	stclvs	0, cr0, [r7], #-332	; 0xfffffeb4
    1ee4:	79706f43 	ldmdbvc	r0!, {r0, r1, r6, r8, r9, sl, fp, sp, lr}^
    1ee8:	53786554 	cmnpl	r8, #84, 10	; 0x15000000
    1eec:	6d496275 	sfmvs	f6, 2, [r9, #-468]	; 0xfffffe2c
    1ef0:	33656761 	cmncc	r5, #25427968	; 0x1840000
    1ef4:	53454f44 	movtpl	r4, #24388	; 0x5f44
    1ef8:	436c6700 	cmnmi	ip, #0, 14
    1efc:	72706d6f 	rsbsvc	r6, r0, #7104	; 0x1bc0
    1f00:	65737365 	ldrbvs	r7, [r3, #-869]!	; 0x365
    1f04:	78655464 	stmdavc	r5!, {r2, r5, r6, sl, ip, lr}^
    1f08:	67616d49 	strbvs	r6, [r1, -r9, asr #26]!
    1f0c:	4f443365 	svcmi	0x00443365
    1f10:	67005345 	strvs	r5, [r0, -r5, asr #6]
    1f14:	6d6f436c 	stclvs	3, cr4, [pc, #-432]!	; 1d6c <glActiveTexture-0x808>
    1f18:	73657270 	cmnvc	r5, #112, 4
    1f1c:	54646573 	strbtpl	r6, [r4], #-1395	; 0x573
    1f20:	75537865 	ldrbvc	r7, [r3, #-2149]	; 0x865
    1f24:	616d4962 	cmnvs	sp, r2, ror #18
    1f28:	44336567 	ldrtmi	r6, [r3], #-1383	; 0x567
    1f2c:	0053454f 	subseq	r4, r3, pc, asr #10
    1f30:	72466c67 	subvc	r6, r6, #26368	; 0x6700
    1f34:	62656d61 	rsbvs	r6, r5, #6208	; 0x1840
    1f38:	65666675 	strbvs	r6, [r6, #-1653]!	; 0x675
    1f3c:	78655472 	stmdavc	r5!, {r1, r4, r5, r6, sl, ip, lr}^
    1f40:	65727574 	ldrbvs	r7, [r2, #-1396]!	; 0x574
    1f44:	454f4433 	strbmi	r4, [pc, #-1075]	; 1b19 <glActiveTexture-0xa5b>
    1f48:	6c670053 	stclvs	0, cr0, [r7], #-332	; 0xfffffeb4
    1f4c:	646e6942 	strbtvs	r6, [lr], #-2370	; 0x942
    1f50:	74726556 	ldrbtvc	r6, [r2], #-1366	; 0x556
    1f54:	72417865 	subvc	r7, r1, #6619136	; 0x650000
    1f58:	4f796172 	svcmi	0x00796172
    1f5c:	67005345 	strvs	r5, [r0, -r5, asr #6]
    1f60:	6c65446c 	cfstrdvs	mvd4, [r5], #-432	; 0xfffffe50
    1f64:	56657465 	strbtpl	r7, [r5], -r5, ror #8
    1f68:	65747265 	ldrbvs	r7, [r4, #-613]!	; 0x265
    1f6c:	72724178 	rsbsvc	r4, r2, #120, 2
    1f70:	4f737961 	svcmi	0x00737961
    1f74:	67005345 	strvs	r5, [r0, -r5, asr #6]
    1f78:	6e65476c 	cdpvs	7, 6, cr4, cr5, cr12, {3}
    1f7c:	74726556 	ldrbtvc	r6, [r2], #-1366	; 0x556
    1f80:	72417865 	subvc	r7, r1, #6619136	; 0x650000
    1f84:	73796172 	cmnvc	r9, #-2147483620	; 0x8000001c
    1f88:	0053454f 	subseq	r4, r3, pc, asr #10
    1f8c:	73496c67 	movtvc	r6, #40039	; 0x9c67
    1f90:	74726556 	ldrbtvc	r6, [r2], #-1366	; 0x556
    1f94:	72417865 	subvc	r7, r1, #6619136	; 0x650000
    1f98:	4f796172 	svcmi	0x00796172
    1f9c:	67005345 	strvs	r5, [r0, -r5, asr #6]
    1fa0:	7465476c 	strbtvc	r4, [r5], #-1900	; 0x76c
    1fa4:	66726550 	undefined instruction 0x66726550
    1fa8:	696e6f4d 	stmdbvs	lr!, {r0, r2, r3, r6, r8, r9, sl, fp, sp, lr}^
    1fac:	47726f74 	undefined instruction 0x47726f74
    1fb0:	70756f72 	rsbsvc	r6, r5, r2, ror pc
    1fb4:	444d4173 	strbmi	r4, [sp], #-371	; 0x173
    1fb8:	476c6700 	strbmi	r6, [ip, -r0, lsl #14]!
    1fbc:	65507465 	ldrbvs	r7, [r0, #-1125]	; 0x465
    1fc0:	6f4d6672 	svcvs	0x004d6672
    1fc4:	6f74696e 	svcvs	0x0074696e
    1fc8:	756f4372 	strbvc	r4, [pc, #-882]!	; 1c5e <glActiveTexture-0x916>
    1fcc:	7265746e 	rsbvc	r7, r5, #1845493760	; 0x6e000000
    1fd0:	444d4173 	strbmi	r4, [sp], #-371	; 0x173
    1fd4:	476c6700 	strbmi	r6, [ip, -r0, lsl #14]!
    1fd8:	65507465 	ldrbvs	r7, [r0, #-1125]	; 0x465
    1fdc:	6f4d6672 	svcvs	0x004d6672
    1fe0:	6f74696e 	svcvs	0x0074696e
    1fe4:	6f724772 	svcvs	0x00724772
    1fe8:	74537075 	ldrbvc	r7, [r3], #-117	; 0x75
    1fec:	676e6972 	undefined instruction 0x676e6972
    1ff0:	00444d41 	subeq	r4, r4, r1, asr #26
    1ff4:	65476c67 	strbvs	r6, [r7, #-3175]	; 0xc67
    1ff8:	72655074 	rsbvc	r5, r5, #116	; 0x74
    1ffc:	6e6f4d66 	cdpvs	13, 6, cr4, cr15, cr6, {3}
    2000:	726f7469 	rsbvc	r7, pc, #1761607680	; 0x69000000
    2004:	6e756f43 	cdpvs	15, 7, cr6, cr5, cr3, {2}
    2008:	53726574 	cmnpl	r2, #116, 10	; 0x1d000000
    200c:	6e697274 	mcrvs	2, 3, r7, cr9, cr4, {3}
    2010:	444d4167 	strbmi	r4, [sp], #-359	; 0x167
    2014:	476c6700 	strbmi	r6, [ip, -r0, lsl #14]!
    2018:	65507465 	ldrbvs	r7, [r0, #-1125]	; 0x465
    201c:	6f4d6672 	svcvs	0x004d6672
    2020:	6f74696e 	svcvs	0x0074696e
    2024:	756f4372 	strbvc	r4, [pc, #-882]!	; 1cba <glActiveTexture-0x8ba>
    2028:	7265746e 	rsbvc	r7, r5, #1845493760	; 0x6e000000
    202c:	6f666e49 	svcvs	0x00666e49
    2030:	00444d41 	subeq	r4, r4, r1, asr #26
    2034:	65476c67 	strbvs	r6, [r7, #-3175]	; 0xc67
    2038:	7265506e 	rsbvc	r5, r5, #110	; 0x6e
    203c:	6e6f4d66 	cdpvs	13, 6, cr4, cr15, cr6, {3}
    2040:	726f7469 	rsbvc	r7, pc, #1761607680	; 0x69000000
    2044:	444d4173 	strbmi	r4, [sp], #-371	; 0x173
    2048:	446c6700 	strbtmi	r6, [ip], #-1792	; 0x700
    204c:	74656c65 	strbtvc	r6, [r5], #-3173	; 0xc65
    2050:	72655065 	rsbvc	r5, r5, #101	; 0x65
    2054:	6e6f4d66 	cdpvs	13, 6, cr4, cr15, cr6, {3}
    2058:	726f7469 	rsbvc	r7, pc, #1761607680	; 0x69000000
    205c:	444d4173 	strbmi	r4, [sp], #-371	; 0x173
    2060:	536c6700 	cmnpl	ip, #0, 14
    2064:	63656c65 	cmnvs	r5, #25856	; 0x6500
    2068:	72655074 	rsbvc	r5, r5, #116	; 0x74
    206c:	6e6f4d66 	cdpvs	13, 6, cr4, cr15, cr6, {3}
    2070:	726f7469 	rsbvc	r7, pc, #1761607680	; 0x69000000
    2074:	6e756f43 	cdpvs	15, 7, cr6, cr5, cr3, {2}
    2078:	73726574 	cmnvc	r2, #116, 10	; 0x1d000000
    207c:	00444d41 	subeq	r4, r4, r1, asr #26
    2080:	65426c67 	strbvs	r6, [r2, #-3175]	; 0xc67
    2084:	506e6967 	rsbpl	r6, lr, r7, ror #18
    2088:	4d667265 	sfmmi	f7, 2, [r6, #-404]!	; 0xfffffe6c
    208c:	74696e6f 	strbtvc	r6, [r9], #-3695	; 0xe6f
    2090:	4d41726f 	sfmmi	f7, 2, [r1, #-444]	; 0xfffffe44
    2094:	6c670044 	stclvs	0, cr0, [r7], #-272	; 0xfffffef0
    2098:	50646e45 	rsbpl	r6, r4, r5, asr #28
    209c:	4d667265 	sfmmi	f7, 2, [r6, #-404]!	; 0xfffffe6c
    20a0:	74696e6f 	strbtvc	r6, [r9], #-3695	; 0xe6f
    20a4:	4d41726f 	sfmmi	f7, 2, [r1, #-444]	; 0xfffffe44
    20a8:	6c670044 	stclvs	0, cr0, [r7], #-272	; 0xfffffef0
    20ac:	50746547 	rsbspl	r6, r4, r7, asr #10
    20b0:	4d667265 	sfmmi	f7, 2, [r6, #-404]!	; 0xfffffe6c
    20b4:	74696e6f 	strbtvc	r6, [r9], #-3695	; 0xe6f
    20b8:	6f43726f 	svcvs	0x0043726f
    20bc:	65746e75 	ldrbvs	r6, [r4, #-3701]!	; 0xe75
    20c0:	74614472 	strbtvc	r4, [r1], #-1138	; 0x472
    20c4:	444d4161 	strbmi	r4, [sp], #-353	; 0x161
    20c8:	446c6700 	strbtmi	r6, [ip], #-1792	; 0x700
    20cc:	61637369 	cmnvs	r3, r9, ror #6
    20d0:	72466472 	subvc	r6, r6, #1912602624	; 0x72000000
    20d4:	62656d61 	rsbvs	r6, r5, #6208	; 0x1840
    20d8:	65666675 	strbvs	r6, [r6, #-1653]!	; 0x675
    20dc:	54584572 	ldrbpl	r4, [r8], #-1394	; 0x572
    20e0:	4d6c6700 	stclmi	7, cr6, [ip, #-0]
    20e4:	69746c75 	ldmdbvs	r4!, {r0, r2, r4, r5, r6, sl, fp, sp, lr}^
    20e8:	77617244 	strbvc	r7, [r1, -r4, asr #4]!
    20ec:	61727241 	cmnvs	r2, r1, asr #4
    20f0:	58457379 	stmdapl	r5, {r0, r3, r4, r5, r6, r8, r9, ip, sp, lr}^
    20f4:	6c670054 	stclvs	0, cr0, [r7], #-336	; 0xfffffeb0
    20f8:	746c754d 	strbtvc	r7, [ip], #-1357	; 0x54d
    20fc:	61724469 	cmnvs	r2, r9, ror #8
    2100:	656c4577 	strbvs	r4, [ip, #-1399]!	; 0x577
    2104:	746e656d 	strbtvc	r6, [lr], #-1389	; 0x56d
    2108:	54584573 	ldrbpl	r4, [r8], #-1395	; 0x573
    210c:	526c6700 	rsbpl	r6, ip, #0, 14
    2110:	65646e65 	strbvs	r6, [r4, #-3685]!	; 0xe65
    2114:	66756272 	undefined instruction 0x66756272
    2118:	53726566 	cmnpl	r2, #427819008	; 0x19800000
    211c:	61726f74 	cmnvs	r2, r4, ror pc
    2120:	754d6567 	strbvc	r6, [sp, #-1383]	; 0x567
    2124:	7369746c 	cmnvc	r9, #108, 8	; 0x6c000000
    2128:	6c706d61 	ldclvs	13, cr6, [r0], #-388	; 0xfffffe7c
    212c:	474d4965 	strbmi	r4, [sp, -r5, ror #18]
    2130:	466c6700 	strbtmi	r6, [ip], -r0, lsl #14
    2134:	656d6172 	strbvs	r6, [sp, #-370]!	; 0x172
    2138:	66667562 	strbtvs	r7, [r6], -r2, ror #10
    213c:	65547265 	ldrbvs	r7, [r4, #-613]	; 0x265
    2140:	72757478 	rsbsvc	r7, r5, #120, 8	; 0x78000000
    2144:	4d443265 	sfmmi	f3, 2, [r4, #-404]	; 0xfffffe6c
    2148:	69746c75 	ldmdbvs	r4!, {r0, r2, r4, r5, r6, sl, fp, sp, lr}^
    214c:	706d6173 	rsbvc	r6, sp, r3, ror r1
    2150:	4d49656c 	cfstr64mi	mvdx6, [r9, #-432]	; 0xfffffe50
    2154:	6c670047 	stclvs	0, cr0, [r7], #-284	; 0xfffffee4
    2158:	656c6544 	strbvs	r6, [ip, #-1348]!	; 0x544
    215c:	65466574 	strbvs	r6, [r6, #-1396]	; 0x574
    2160:	7365636e 	cmnvc	r5, #-1207959551	; 0xb8000001
    2164:	6700564e 	strvs	r5, [r0, -lr, asr #12]
    2168:	6e65476c 	cdpvs	7, 6, cr4, cr5, cr12, {3}
    216c:	636e6546 	cmnvs	lr, #293601280	; 0x11800000
    2170:	564e7365 	strbpl	r7, [lr], -r5, ror #6
    2174:	496c6700 	stmdbmi	ip!, {r8, r9, sl, sp, lr}^
    2178:	6e654673 	mcrvs	6, 3, r4, cr5, cr3, {3}
    217c:	564e6563 	strbpl	r6, [lr], -r3, ror #10
    2180:	546c6700 	strbtpl	r6, [ip], #-1792	; 0x700
    2184:	46747365 	ldrbtmi	r7, [r4], -r5, ror #6
    2188:	65636e65 	strbvs	r6, [r3, #-3685]!	; 0xe65
    218c:	6700564e 	strvs	r5, [r0, -lr, asr #12]
    2190:	7465476c 	strbtvc	r4, [r5], #-1900	; 0x76c
    2194:	636e6546 	cmnvs	lr, #293601280	; 0x11800000
    2198:	4e766965 	cdpmi	9, 7, cr6, cr6, cr5, {3}
    219c:	6c670056 	stclvs	0, cr0, [r7], #-344	; 0xfffffea8
    21a0:	696e6946 	stmdbvs	lr!, {r1, r2, r6, r8, fp, sp, lr}^
    21a4:	65466873 	strbvs	r6, [r6, #-2163]	; 0x873
    21a8:	4e65636e 	cdpmi	3, 6, cr6, cr5, cr14, {3}
    21ac:	6c670056 	stclvs	0, cr0, [r7], #-344	; 0xfffffea8
    21b0:	46746553 	undefined instruction 0x46746553
    21b4:	65636e65 	strbvs	r6, [r3, #-3685]!	; 0xe65
    21b8:	6700564e 	strvs	r5, [r0, -lr, asr #12]
    21bc:	766f436c 	strbtvc	r4, [pc], -ip, ror #6
    21c0:	67617265 	strbvs	r7, [r1, -r5, ror #4]!
    21c4:	73614d65 	cmnvc	r1, #6464	; 0x1940
    21c8:	00564e6b 	subseq	r4, r6, fp, ror #28
    21cc:	6f436c67 	svcvs	0x00436c67
    21d0:	61726576 	cmnvs	r2, r6, ror r5
    21d4:	704f6567 	subvc	r6, pc, r7, ror #10
    21d8:	74617265 	strbtvc	r7, [r1], #-613	; 0x265
    21dc:	4e6e6f69 	cdpmi	15, 6, cr6, cr14, cr9, {3}
    21e0:	6c670056 	stclvs	0, cr0, [r7], #-344	; 0xfffffea8
    21e4:	44746547 	ldrbtmi	r6, [r4], #-1351	; 0x547
    21e8:	65766972 	ldrbvs	r6, [r6, #-2418]!	; 0x972
    21ec:	6e6f4372 	mcrvs	3, 3, r4, cr15, cr2, {3}
    21f0:	6c6f7274 	sfmvs	f7, 2, [pc], #-464	; 2028 <glActiveTexture-0x54c>
    21f4:	4f435173 	svcmi	0x00435173
    21f8:	6c67004d 	stclvs	0, cr0, [r7], #-308	; 0xfffffecc
    21fc:	44746547 	ldrbtmi	r6, [r4], #-1351	; 0x547
    2200:	65766972 	ldrbvs	r6, [r6, #-2418]!	; 0x972
    2204:	6e6f4372 	mcrvs	3, 3, r4, cr15, cr2, {3}
    2208:	6c6f7274 	sfmvs	f7, 2, [pc], #-464	; 2040 <glActiveTexture-0x534>
    220c:	69727453 	ldmdbvs	r2!, {r0, r1, r4, r6, sl, ip, sp, lr}^
    2210:	4351676e 	cmpmi	r1, #28835840	; 0x1b80000
    2214:	67004d4f 	strvs	r4, [r0, -pc, asr #26]
    2218:	616e456c 	cmnvs	lr, ip, ror #10
    221c:	44656c62 	strbtmi	r6, [r5], #-3170	; 0xc62
    2220:	65766972 	ldrbvs	r6, [r6, #-2418]!	; 0x972
    2224:	6e6f4372 	mcrvs	3, 3, r4, cr15, cr2, {3}
    2228:	6c6f7274 	sfmvs	f7, 2, [pc], #-464	; 2060 <glActiveTexture-0x514>
    222c:	4d4f4351 	stclmi	3, cr4, [pc, #-324]	; 20f0 <glActiveTexture-0x484>
    2230:	446c6700 	strbtmi	r6, [ip], #-1792	; 0x700
    2234:	62617369 	rsbvs	r7, r1, #-1543503871	; 0xa4000001
    2238:	7244656c 	subvc	r6, r4, #108, 10	; 0x1b000000
    223c:	72657669 	rsbvc	r7, r5, #110100480	; 0x6900000
    2240:	746e6f43 	strbtvc	r6, [lr], #-3907	; 0xf43
    2244:	516c6f72 	smcpl	50930	; 0xc6f2
    2248:	004d4f43 	subeq	r4, sp, r3, asr #30
    224c:	78456c67 	stmdavc	r5, {r0, r1, r2, r5, r6, sl, fp, sp, lr}^
    2250:	74654774 	strbtvc	r4, [r5], #-1908	; 0x774
    2254:	74786554 	ldrbtvc	r6, [r8], #-1364	; 0x554
    2258:	73657275 	cmnvc	r5, #1342177287	; 0x50000007
    225c:	4d4f4351 	stclmi	3, cr4, [pc, #-324]	; 2120 <glActiveTexture-0x454>
    2260:	456c6700 	strbmi	r6, [ip, #-1792]!	; 0x700
    2264:	65477478 	strbvs	r7, [r7, #-1144]	; 0x478
    2268:	66754274 	undefined instruction 0x66754274
    226c:	73726566 	cmnvc	r2, #427819008	; 0x19800000
    2270:	4d4f4351 	stclmi	3, cr4, [pc, #-324]	; 2134 <glActiveTexture-0x440>
    2274:	456c6700 	strbmi	r6, [ip, #-1792]!	; 0x700
    2278:	65477478 	strbvs	r7, [r7, #-1144]	; 0x478
    227c:	6e655274 	mcrvs	2, 3, r5, cr5, cr4, {3}
    2280:	62726564 	rsbsvs	r6, r2, #100, 10	; 0x19000000
    2284:	65666675 	strbvs	r6, [r6, #-1653]!	; 0x675
    2288:	43517372 	cmpmi	r1, #-939524095	; 0xc8000001
    228c:	67004d4f 	strvs	r4, [r0, -pc, asr #26]
    2290:	7478456c 	ldrbtvc	r4, [r8], #-1388	; 0x56c
    2294:	46746547 	ldrbtmi	r6, [r4], -r7, asr #10
    2298:	656d6172 	strbvs	r6, [sp, #-370]!	; 0x172
    229c:	66667562 	strbtvs	r7, [r6], -r2, ror #10
    22a0:	51737265 	cmnpl	r3, r5, ror #4
    22a4:	004d4f43 	subeq	r4, sp, r3, asr #30
    22a8:	78456c67 	stmdavc	r5, {r0, r1, r2, r5, r6, sl, fp, sp, lr}^
    22ac:	74654774 	strbtvc	r4, [r5], #-1908	; 0x774
    22b0:	4c786554 	cfldr64mi	mvdx6, [r8], #-336	; 0xfffffeb0
    22b4:	6c657665 	stclvs	6, cr7, [r5], #-404	; 0xfffffe6c
    22b8:	61726150 	cmnvs	r2, r0, asr r1
    22bc:	6574656d 	ldrbvs	r6, [r4, #-1389]!	; 0x56d
    22c0:	51766972 	cmnpl	r6, r2, ror r9
    22c4:	004d4f43 	subeq	r4, sp, r3, asr #30
    22c8:	78456c67 	stmdavc	r5, {r0, r1, r2, r5, r6, sl, fp, sp, lr}^
    22cc:	78655474 	stmdavc	r5!, {r2, r4, r5, r6, sl, ip, lr}^
    22d0:	656a624f 	strbvs	r6, [sl, #-591]!	; 0x24f
    22d4:	74537463 	ldrbvc	r7, [r3], #-1123	; 0x463
    22d8:	4f657461 	svcmi	0x00657461
    22dc:	72726576 	rsbsvc	r6, r2, #494927872	; 0x1d800000
    22e0:	69656469 	stmdbvs	r5!, {r0, r3, r5, r6, sl, sp, lr}^
    22e4:	4d4f4351 	stclmi	3, cr4, [pc, #-324]	; 21a8 <glActiveTexture-0x3cc>
    22e8:	456c6700 	strbmi	r6, [ip, #-1792]!	; 0x700
    22ec:	65477478 	strbvs	r7, [r7, #-1144]	; 0x478
    22f0:	78655474 	stmdavc	r5!, {r2, r4, r5, r6, sl, ip, lr}^
    22f4:	49627553 	stmdbmi	r2!, {r0, r1, r4, r6, r8, sl, ip, sp, lr}^
    22f8:	6567616d 	strbvs	r6, [r7, #-365]!	; 0x16d
    22fc:	4d4f4351 	stclmi	3, cr4, [pc, #-324]	; 21c0 <glActiveTexture-0x3b4>
    2300:	456c6700 	strbmi	r6, [ip, #-1792]!	; 0x700
    2304:	65477478 	strbvs	r7, [r7, #-1144]	; 0x478
    2308:	66754274 	undefined instruction 0x66754274
    230c:	50726566 	rsbspl	r6, r2, r6, ror #10
    2310:	746e696f 	strbtvc	r6, [lr], #-2415	; 0x96f
    2314:	51767265 	cmnpl	r6, r5, ror #4
    2318:	004d4f43 	subeq	r4, sp, r3, asr #30
    231c:	78456c67 	stmdavc	r5, {r0, r1, r2, r5, r6, sl, fp, sp, lr}^
    2320:	74654774 	strbtvc	r4, [r5], #-1908	; 0x774
    2324:	64616853 	strbtvs	r6, [r1], #-2131	; 0x853
    2328:	51737265 	cmnpl	r3, r5, ror #4
    232c:	004d4f43 	subeq	r4, sp, r3, asr #30
    2330:	78456c67 	stmdavc	r5, {r0, r1, r2, r5, r6, sl, fp, sp, lr}^
    2334:	74654774 	strbtvc	r4, [r5], #-1908	; 0x774
    2338:	676f7250 	undefined instruction 0x676f7250
    233c:	736d6172 	cmnvc	sp, #-2147483620	; 0x8000001c
    2340:	4d4f4351 	stclmi	3, cr4, [pc, #-324]	; 2204 <glActiveTexture-0x370>
    2344:	456c6700 	strbmi	r6, [ip, #-1792]!	; 0x700
    2348:	73497478 	movtvc	r7, #38008	; 0x9478
    234c:	676f7250 	undefined instruction 0x676f7250
    2350:	426d6172 	rsbmi	r6, sp, #-2147483620	; 0x8000001c
    2354:	72616e69 	rsbvc	r6, r1, #1680	; 0x690
    2358:	4f435179 	svcmi	0x00435179
    235c:	6c67004d 	stclvs	0, cr0, [r7], #-308	; 0xfffffecc
    2360:	47747845 	ldrbmi	r7, [r4, -r5, asr #16]!
    2364:	72507465 	subsvc	r7, r0, #1694498816	; 0x65000000
    2368:	6172676f 	cmnvs	r2, pc, ror #14
    236c:	6e69426d 	cdpvs	2, 6, cr4, cr9, cr13, {3}
    2370:	53797261 	cmnpl	r9, #268435462	; 0x10000006
    2374:	6372756f 	cmnvs	r2, #465567744	; 0x1bc00000
    2378:	4f435165 	svcmi	0x00435165
    237c:	6c67004d 	stclvs	0, cr0, [r7], #-308	; 0xfffffecc
    2380:	72617453 	rsbvc	r7, r1, #1392508928	; 0x53000000
    2384:	6c695474 	cfstrdvs	mvd5, [r9], #-464	; 0xfffffe30
    2388:	51676e69 	cmnpl	r7, r9, ror #28
    238c:	004d4f43 	subeq	r4, sp, r3, asr #30
    2390:	6e456c67 	cdpvs	12, 4, cr6, cr5, cr7, {3}
    2394:	6c695464 	cfstrdvs	mvd5, [r9], #-400	; 0xfffffe70
    2398:	51676e69 	cmnpl	r7, r9, ror #28
    239c:	004d4f43 	subeq	r4, sp, r3, asr #30
    23a0:	47456c67 	strbmi	r6, [r5, -r7, ror #24]
    23a4:	616d494c 	cmnvs	sp, ip, asr #18
    23a8:	61546567 	cmpvs	r4, r7, ror #10
    23ac:	74656772 	strbtvc	r6, [r5], #-1906	; 0x772
    23b0:	646e6552 	strbtvs	r6, [lr], #-1362	; 0x552
    23b4:	75627265 	strbvc	r7, [r2, #-613]!	; 0x265
    23b8:	72656666 	rsbvc	r6, r5, #106954752	; 0x6600000
    23bc:	726f7453 	rsbvc	r7, pc, #1392508928	; 0x53000000
    23c0:	4f656761 	svcmi	0x00656761
    23c4:	5f005345 	svcpl	0x00005345
    23c8:	61374e5a 	teqvs	r7, sl, asr lr
    23cc:	6f72646e 	svcvs	0x0072646e
    23d0:	33336469 	teqcc	r3, #1761607680	; 0x69000000
    23d4:	5f6c6765 	svcpl	0x006c6765
    23d8:	5f746567 	svcpl	0x00746567
    23dc:	67616d69 	strbvs	r6, [r1, -r9, ror #26]!
    23e0:	6f665f65 	svcvs	0x00665f65
    23e4:	75635f72 	strbvc	r5, [r3, #-3954]!	; 0xf72
    23e8:	6e657272 	mcrvs	2, 3, r7, cr5, cr2, {3}
    23ec:	6f635f74 	svcvs	0x00635f74
    23f0:	7865746e 	stmdavc	r5!, {r1, r2, r3, r5, r6, sl, ip, sp, lr}^
    23f4:	76504574 	undefined instruction 0x76504574
    23f8:	456c6700 	strbmi	r6, [ip, #-1792]!	; 0x700
    23fc:	6d494c47 	stclvs	12, cr4, [r9, #-284]	; 0xfffffee4
    2400:	54656761 	strbtpl	r6, [r5], #-1889	; 0x761
    2404:	65677261 	strbvs	r7, [r7, #-609]!	; 0x261
    2408:	78655474 	stmdavc	r5!, {r2, r4, r5, r6, sl, ip, lr}^
    240c:	65727574 	ldrbvs	r7, [r2, #-1396]!	; 0x574
    2410:	454f4432 	strbmi	r4, [pc, #-1074]	; 1fe6 <glActiveTexture-0x58e>
    2414:	5f5f0053 	svcpl	0x005f0053
    2418:	5f617863 	svcpl	0x00617863
    241c:	616e6966 	cmnvs	lr, r6, ror #18
    2420:	657a696c 	ldrbvs	r6, [sl, #-2412]!	; 0x96c
    2424:	645f5f00 	ldrbvs	r5, [pc], #3840	; 242c <glActiveTexture-0x148>
    2428:	685f6f73 	ldmdavs	pc, {r0, r1, r4, r5, r6, r8, r9, sl, fp, sp, lr}^
    242c:	6c646e61 	stclvs	14, cr6, [r4], #-388	; 0xfffffe7c
    2430:	5f5f0065 	svcpl	0x005f0065
    2434:	54494e49 	strbpl	r4, [r9], #-3657	; 0xe49
    2438:	5252415f 	subspl	r4, r2, #-1073741801	; 0xc0000017
    243c:	5f5f5941 	svcpl	0x005f5941
    2440:	465f5f00 	ldrbmi	r5, [pc], -r0, lsl #30
    2444:	5f494e49 	svcpl	0x00494e49
    2448:	41525241 	cmpmi	r2, r1, asr #4
    244c:	005f5f59 	subseq	r5, pc, r9, asr pc
    2450:	78655f5f 	stmdavc	r5!, {r0, r1, r2, r3, r4, r6, r8, r9, sl, fp, ip, lr}^
    2454:	5f786469 	svcpl	0x00786469
    2458:	72617473 	rsbvc	r7, r1, #1929379840	; 0x73000000
    245c:	5f5f0074 	svcpl	0x005f0074
    2460:	64697865 	strbtvs	r7, [r9], #-2149	; 0x865
    2464:	6e655f78 	mcrvs	15, 3, r5, cr5, cr8, {3}
    2468:	5f5f0064 	svcpl	0x005f0064
    246c:	61746164 	cmnvs	r4, r4, ror #2
    2470:	6174735f 	cmnvs	r4, pc, asr r3
    2474:	5f007472 	svcpl	0x00007472
    2478:	74616465 	strbtvc	r6, [r1], #-1125	; 0x465
    247c:	5f5f0061 	svcpl	0x005f0061
    2480:	5f737362 	svcpl	0x00737362
    2484:	72617473 	rsbvc	r7, r1, #1929379840	; 0x73000000
    2488:	5f5f0074 	svcpl	0x005f0074
    248c:	5f737362 	svcpl	0x00737362
    2490:	72617473 	rsbvc	r7, r1, #1929379840	; 0x73000000
    2494:	005f5f74 	subseq	r5, pc, r4, ror pc
    2498:	7373625f 	cmnvc	r3, #-268435451	; 0xf0000005
    249c:	646e655f 	strbtvs	r6, [lr], #-1375	; 0x55f
    24a0:	5f005f5f 	svcpl	0x00005f5f
    24a4:	7373625f 	cmnvc	r3, #-268435451	; 0xf0000005
    24a8:	646e655f 	strbtvs	r6, [lr], #-1375	; 0x55f
    24ac:	5f005f5f 	svcpl	0x00005f5f
    24b0:	646e655f 	strbtvs	r6, [lr], #-1375	; 0x55f
    24b4:	5f005f5f 	svcpl	0x00005f5f
    24b8:	00646e65 	rsbeq	r6, r4, r5, ror #28
    24bc:	6174735f 	cmnvs	r4, pc, asr r3
    24c0:	6c006b63 	stcvs	11, cr6, [r0], {99}	; 0x63
    24c4:	6f6c6269 	svcvs	0x006c6269
    24c8:	6f732e67 	svcvs	0x00732e67
    24cc:	62696c00 	rsbvs	r6, r9, #0, 24
    24d0:	69747563 	ldmdbvs	r4!, {r0, r1, r5, r6, r8, sl, ip, sp, lr}^
    24d4:	732e736c 	teqvc	lr, #108, 6	; 0xb0000001
    24d8:	696c006f 	stmdbvs	ip!, {r0, r1, r2, r3, r5, r6}^
    24dc:	4c474562 	cfstr64mi	mvdx4, [r7], {98}	; 0x62
    24e0:	006f732e 	rsbeq	r7, pc, lr, lsr #6
    24e4:	6462696c 	strbtvs	r6, [r2], #-2412	; 0x96c
    24e8:	6f732e6c 	svcvs	0x00732e6c
    24ec:	62696c00 	rsbvs	r6, r9, #0, 24
    24f0:	6f732e63 	svcvs	0x00732e63
    24f4:	62696c00 	rsbvs	r6, r9, #0, 24
    24f8:	63647473 	cmnvs	r4, #1929379840	; 0x73000000
    24fc:	732e2b2b 	teqvc	lr, #44032	; 0xac00
    2500:	696c006f 	stmdbvs	ip!, {r0, r1, r2, r3, r5, r6}^
    2504:	732e6d62 	teqvc	lr, #6272	; 0x1880
    2508:	696c006f 	stmdbvs	ip!, {r0, r1, r2, r3, r5, r6}^
    250c:	454c4762 	strbmi	r4, [ip, #-1890]	; 0x762
    2510:	2e327653 	mrccs	6, 1, r7, cr2, cr3, {2}
    2514:	Address 0x00002514 is out of bounds.


Disassembly of section .rel.plt:

00002518 <.rel.plt>:
    2518:	00004108 	andeq	r4, r0, r8, lsl #2
    251c:	0000cb16 	andeq	ip, r0, r6, lsl fp
    2520:	0000410c 	andeq	r4, r0, ip, lsl #2
    2524:	0000cd16 	andeq	ip, r0, r6, lsl sp

Disassembly of section .plt:

00002538 <.plt>:
    2538:	e52de004 	push	{lr}		; (str lr, [sp, #-4]!)
    253c:	e59fe004 	ldr	lr, [pc, #4]	; 2548 <glActiveTexture-0x2c>
    2540:	e08fe00e 	add	lr, pc, lr
    2544:	e5bef008 	ldr	pc, [lr, #8]!
    2548:	00001bb4 	strheq	r1, [r0], -r4
    254c:	e28fc600 	add	ip, pc, #0, 12
    2550:	e28cca01 	add	ip, ip, #4096	; 0x1000
    2554:	e5bcfbb4 	ldr	pc, [ip, #2996]!	; 0xbb4
    2558:	e28fc600 	add	ip, pc, #0, 12
    255c:	e28cca01 	add	ip, ip, #4096	; 0x1000
    2560:	e5bcfbac 	ldr	pc, [ip, #2988]!	; 0xbac

Disassembly of section .text:

00002564 <glActiveTexture-0x10>:
    2564:	e28f0004 	add	r0, pc, #4
    2568:	e5900000 	ldr	r0, [r0]
    256c:	eafffff9 	b	2558 <glActiveTexture-0x1c>
    2570:	ac104110 	ldfges	f4, [r0], {16}

00002574 <glActiveTexture>:
    2574:	ee1dcf70 	mrc	15, 0, ip, cr13, cr0, {3}
    2578:	e59cc00c 	ldr	ip, [ip, #12]
    257c:	e35c0000 	cmp	ip, #0
    2580:	159cf000 	ldrne	pc, [ip]
    2584:	e3a00000 	mov	r0, #0
    2588:	e12fff1e 	bx	lr

0000258c <glAttachShader>:
    258c:	ee1dcf70 	mrc	15, 0, ip, cr13, cr0, {3}
    2590:	e59cc00c 	ldr	ip, [ip, #12]
    2594:	e35c0000 	cmp	ip, #0
    2598:	159cf010 	ldrne	pc, [ip, #16]
    259c:	e3a00000 	mov	r0, #0
    25a0:	e12fff1e 	bx	lr

000025a4 <glBindAttribLocation>:
    25a4:	ee1dcf70 	mrc	15, 0, ip, cr13, cr0, {3}
    25a8:	e59cc00c 	ldr	ip, [ip, #12]
    25ac:	e35c0000 	cmp	ip, #0
    25b0:	159cf018 	ldrne	pc, [ip, #24]
    25b4:	e3a00000 	mov	r0, #0
    25b8:	e12fff1e 	bx	lr

000025bc <glBindBuffer>:
    25bc:	ee1dcf70 	mrc	15, 0, ip, cr13, cr0, {3}
    25c0:	e59cc00c 	ldr	ip, [ip, #12]
    25c4:	e35c0000 	cmp	ip, #0
    25c8:	159cf01c 	ldrne	pc, [ip, #28]
    25cc:	e3a00000 	mov	r0, #0
    25d0:	e12fff1e 	bx	lr

000025d4 <glBindFramebuffer>:
    25d4:	ee1dcf70 	mrc	15, 0, ip, cr13, cr0, {3}
    25d8:	e59cc00c 	ldr	ip, [ip, #12]
    25dc:	e35c0000 	cmp	ip, #0
    25e0:	159cf020 	ldrne	pc, [ip, #32]
    25e4:	e3a00000 	mov	r0, #0
    25e8:	e12fff1e 	bx	lr

000025ec <glBindRenderbuffer>:
    25ec:	ee1dcf70 	mrc	15, 0, ip, cr13, cr0, {3}
    25f0:	e59cc00c 	ldr	ip, [ip, #12]
    25f4:	e35c0000 	cmp	ip, #0
    25f8:	159cf028 	ldrne	pc, [ip, #40]	; 0x28
    25fc:	e3a00000 	mov	r0, #0
    2600:	e12fff1e 	bx	lr

00002604 <glBindTexture>:
    2604:	ee1dcf70 	mrc	15, 0, ip, cr13, cr0, {3}
    2608:	e59cc00c 	ldr	ip, [ip, #12]
    260c:	e35c0000 	cmp	ip, #0
    2610:	159cf030 	ldrne	pc, [ip, #48]	; 0x30
    2614:	e3a00000 	mov	r0, #0
    2618:	e12fff1e 	bx	lr

0000261c <glBlendColor>:
    261c:	ee1dcf70 	mrc	15, 0, ip, cr13, cr0, {3}
    2620:	e59cc00c 	ldr	ip, [ip, #12]
    2624:	e35c0000 	cmp	ip, #0
    2628:	159cf038 	ldrne	pc, [ip, #56]	; 0x38
    262c:	e3a00000 	mov	r0, #0
    2630:	e12fff1e 	bx	lr

00002634 <glBlendEquation>:
    2634:	ee1dcf70 	mrc	15, 0, ip, cr13, cr0, {3}
    2638:	e59cc00c 	ldr	ip, [ip, #12]
    263c:	e35c0000 	cmp	ip, #0
    2640:	159cf03c 	ldrne	pc, [ip, #60]	; 0x3c
    2644:	e3a00000 	mov	r0, #0
    2648:	e12fff1e 	bx	lr

0000264c <glBlendEquationSeparate>:
    264c:	ee1dcf70 	mrc	15, 0, ip, cr13, cr0, {3}
    2650:	e59cc00c 	ldr	ip, [ip, #12]
    2654:	e35c0000 	cmp	ip, #0
    2658:	159cf044 	ldrne	pc, [ip, #68]	; 0x44
    265c:	e3a00000 	mov	r0, #0
    2660:	e12fff1e 	bx	lr

00002664 <glBlendFunc>:
    2664:	ee1dcf70 	mrc	15, 0, ip, cr13, cr0, {3}
    2668:	e59cc00c 	ldr	ip, [ip, #12]
    266c:	e35c0000 	cmp	ip, #0
    2670:	159cf04c 	ldrne	pc, [ip, #76]	; 0x4c
    2674:	e3a00000 	mov	r0, #0
    2678:	e12fff1e 	bx	lr

0000267c <glBlendFuncSeparate>:
    267c:	ee1dcf70 	mrc	15, 0, ip, cr13, cr0, {3}
    2680:	e59cc00c 	ldr	ip, [ip, #12]
    2684:	e35c0000 	cmp	ip, #0
    2688:	159cf050 	ldrne	pc, [ip, #80]	; 0x50
    268c:	e3a00000 	mov	r0, #0
    2690:	e12fff1e 	bx	lr

00002694 <glBufferData>:
    2694:	ee1dcf70 	mrc	15, 0, ip, cr13, cr0, {3}
    2698:	e59cc00c 	ldr	ip, [ip, #12]
    269c:	e35c0000 	cmp	ip, #0
    26a0:	159cf058 	ldrne	pc, [ip, #88]	; 0x58
    26a4:	e3a00000 	mov	r0, #0
    26a8:	e12fff1e 	bx	lr

000026ac <glBufferSubData>:
    26ac:	ee1dcf70 	mrc	15, 0, ip, cr13, cr0, {3}
    26b0:	e59cc00c 	ldr	ip, [ip, #12]
    26b4:	e35c0000 	cmp	ip, #0
    26b8:	159cf05c 	ldrne	pc, [ip, #92]	; 0x5c
    26bc:	e3a00000 	mov	r0, #0
    26c0:	e12fff1e 	bx	lr

000026c4 <glCheckFramebufferStatus>:
    26c4:	ee1dcf70 	mrc	15, 0, ip, cr13, cr0, {3}
    26c8:	e59cc00c 	ldr	ip, [ip, #12]
    26cc:	e35c0000 	cmp	ip, #0
    26d0:	159cf060 	ldrne	pc, [ip, #96]	; 0x60
    26d4:	e3a00000 	mov	r0, #0
    26d8:	e12fff1e 	bx	lr
    26dc:	e3a00000 	mov	r0, #0

000026e0 <glClear>:
    26e0:	ee1dcf70 	mrc	15, 0, ip, cr13, cr0, {3}
    26e4:	e59cc00c 	ldr	ip, [ip, #12]
    26e8:	e35c0000 	cmp	ip, #0
    26ec:	159cf068 	ldrne	pc, [ip, #104]	; 0x68
    26f0:	e3a00000 	mov	r0, #0
    26f4:	e12fff1e 	bx	lr

000026f8 <glClearColor>:
    26f8:	ee1dcf70 	mrc	15, 0, ip, cr13, cr0, {3}
    26fc:	e59cc00c 	ldr	ip, [ip, #12]
    2700:	e35c0000 	cmp	ip, #0
    2704:	159cf06c 	ldrne	pc, [ip, #108]	; 0x6c
    2708:	e3a00000 	mov	r0, #0
    270c:	e12fff1e 	bx	lr

00002710 <glClearDepthf>:
    2710:	ee1dcf70 	mrc	15, 0, ip, cr13, cr0, {3}
    2714:	e59cc00c 	ldr	ip, [ip, #12]
    2718:	e35c0000 	cmp	ip, #0
    271c:	159cf078 	ldrne	pc, [ip, #120]	; 0x78
    2720:	e3a00000 	mov	r0, #0
    2724:	e12fff1e 	bx	lr

00002728 <glClearStencil>:
    2728:	ee1dcf70 	mrc	15, 0, ip, cr13, cr0, {3}
    272c:	e59cc00c 	ldr	ip, [ip, #12]
    2730:	e35c0000 	cmp	ip, #0
    2734:	159cf088 	ldrne	pc, [ip, #136]	; 0x88
    2738:	e3a00000 	mov	r0, #0
    273c:	e12fff1e 	bx	lr

00002740 <glColorMask>:
    2740:	ee1dcf70 	mrc	15, 0, ip, cr13, cr0, {3}
    2744:	e59cc00c 	ldr	ip, [ip, #12]
    2748:	e35c0000 	cmp	ip, #0
    274c:	159cf0b8 	ldrne	pc, [ip, #184]	; 0xb8
    2750:	e3a00000 	mov	r0, #0
    2754:	e12fff1e 	bx	lr

00002758 <glCompileShader>:
    2758:	ee1dcf70 	mrc	15, 0, ip, cr13, cr0, {3}
    275c:	e59cc00c 	ldr	ip, [ip, #12]
    2760:	e35c0000 	cmp	ip, #0
    2764:	159cf0c0 	ldrne	pc, [ip, #192]	; 0xc0
    2768:	e3a00000 	mov	r0, #0
    276c:	e12fff1e 	bx	lr

00002770 <glCompressedTexImage2D>:
    2770:	ee1dcf70 	mrc	15, 0, ip, cr13, cr0, {3}
    2774:	e59cc00c 	ldr	ip, [ip, #12]
    2778:	e35c0000 	cmp	ip, #0
    277c:	159cf0c4 	ldrne	pc, [ip, #196]	; 0xc4
    2780:	e3a00000 	mov	r0, #0
    2784:	e12fff1e 	bx	lr

00002788 <glCompressedTexSubImage2D>:
    2788:	ee1dcf70 	mrc	15, 0, ip, cr13, cr0, {3}
    278c:	e59cc00c 	ldr	ip, [ip, #12]
    2790:	e35c0000 	cmp	ip, #0
    2794:	159cf0cc 	ldrne	pc, [ip, #204]	; 0xcc
    2798:	e3a00000 	mov	r0, #0
    279c:	e12fff1e 	bx	lr

000027a0 <glCopyTexImage2D>:
    27a0:	ee1dcf70 	mrc	15, 0, ip, cr13, cr0, {3}
    27a4:	e59cc00c 	ldr	ip, [ip, #12]
    27a8:	e35c0000 	cmp	ip, #0
    27ac:	159cf0d4 	ldrne	pc, [ip, #212]	; 0xd4
    27b0:	e3a00000 	mov	r0, #0
    27b4:	e12fff1e 	bx	lr

000027b8 <glCopyTexSubImage2D>:
    27b8:	ee1dcf70 	mrc	15, 0, ip, cr13, cr0, {3}
    27bc:	e59cc00c 	ldr	ip, [ip, #12]
    27c0:	e35c0000 	cmp	ip, #0
    27c4:	159cf0d8 	ldrne	pc, [ip, #216]	; 0xd8
    27c8:	e3a00000 	mov	r0, #0
    27cc:	e12fff1e 	bx	lr

000027d0 <glCreateProgram>:
    27d0:	ee1dcf70 	mrc	15, 0, ip, cr13, cr0, {3}
    27d4:	e59cc00c 	ldr	ip, [ip, #12]
    27d8:	e35c0000 	cmp	ip, #0
    27dc:	159cf0e8 	ldrne	pc, [ip, #232]	; 0xe8
    27e0:	e3a00000 	mov	r0, #0
    27e4:	e12fff1e 	bx	lr
    27e8:	e3a00000 	mov	r0, #0

000027ec <glCreateShader>:
    27ec:	ee1dcf70 	mrc	15, 0, ip, cr13, cr0, {3}
    27f0:	e59cc00c 	ldr	ip, [ip, #12]
    27f4:	e35c0000 	cmp	ip, #0
    27f8:	159cf0ec 	ldrne	pc, [ip, #236]	; 0xec
    27fc:	e3a00000 	mov	r0, #0
    2800:	e12fff1e 	bx	lr
    2804:	e3a00000 	mov	r0, #0

00002808 <glCullFace>:
    2808:	ee1dcf70 	mrc	15, 0, ip, cr13, cr0, {3}
    280c:	e59cc00c 	ldr	ip, [ip, #12]
    2810:	e35c0000 	cmp	ip, #0
    2814:	159cf0f0 	ldrne	pc, [ip, #240]	; 0xf0
    2818:	e3a00000 	mov	r0, #0
    281c:	e12fff1e 	bx	lr

00002820 <glDeleteBuffers>:
    2820:	ee1dcf70 	mrc	15, 0, ip, cr13, cr0, {3}
    2824:	e59cc00c 	ldr	ip, [ip, #12]
    2828:	e35c0000 	cmp	ip, #0
    282c:	159cf0f8 	ldrne	pc, [ip, #248]	; 0xf8
    2830:	e3a00000 	mov	r0, #0
    2834:	e12fff1e 	bx	lr

00002838 <glDeleteFramebuffers>:
    2838:	ee1dcf70 	mrc	15, 0, ip, cr13, cr0, {3}
    283c:	e59cc00c 	ldr	ip, [ip, #12]
    2840:	e35c0000 	cmp	ip, #0
    2844:	159cf100 	ldrne	pc, [ip, #256]	; 0x100
    2848:	e3a00000 	mov	r0, #0
    284c:	e12fff1e 	bx	lr

00002850 <glDeleteProgram>:
    2850:	ee1dcf70 	mrc	15, 0, ip, cr13, cr0, {3}
    2854:	e59cc00c 	ldr	ip, [ip, #12]
    2858:	e35c0000 	cmp	ip, #0
    285c:	159cf10c 	ldrne	pc, [ip, #268]	; 0x10c
    2860:	e3a00000 	mov	r0, #0
    2864:	e12fff1e 	bx	lr

00002868 <glDeleteRenderbuffers>:
    2868:	ee1dcf70 	mrc	15, 0, ip, cr13, cr0, {3}
    286c:	e59cc00c 	ldr	ip, [ip, #12]
    2870:	e35c0000 	cmp	ip, #0
    2874:	159cf110 	ldrne	pc, [ip, #272]	; 0x110
    2878:	e3a00000 	mov	r0, #0
    287c:	e12fff1e 	bx	lr

00002880 <glDeleteShader>:
    2880:	ee1dcf70 	mrc	15, 0, ip, cr13, cr0, {3}
    2884:	e59cc00c 	ldr	ip, [ip, #12]
    2888:	e35c0000 	cmp	ip, #0
    288c:	159cf118 	ldrne	pc, [ip, #280]	; 0x118
    2890:	e3a00000 	mov	r0, #0
    2894:	e12fff1e 	bx	lr

00002898 <glDeleteTextures>:
    2898:	ee1dcf70 	mrc	15, 0, ip, cr13, cr0, {3}
    289c:	e59cc00c 	ldr	ip, [ip, #12]
    28a0:	e35c0000 	cmp	ip, #0
    28a4:	159cf11c 	ldrne	pc, [ip, #284]	; 0x11c
    28a8:	e3a00000 	mov	r0, #0
    28ac:	e12fff1e 	bx	lr

000028b0 <glDepthFunc>:
    28b0:	ee1dcf70 	mrc	15, 0, ip, cr13, cr0, {3}
    28b4:	e59cc00c 	ldr	ip, [ip, #12]
    28b8:	e35c0000 	cmp	ip, #0
    28bc:	159cf124 	ldrne	pc, [ip, #292]	; 0x124
    28c0:	e3a00000 	mov	r0, #0
    28c4:	e12fff1e 	bx	lr

000028c8 <glDepthMask>:
    28c8:	ee1dcf70 	mrc	15, 0, ip, cr13, cr0, {3}
    28cc:	e59cc00c 	ldr	ip, [ip, #12]
    28d0:	e35c0000 	cmp	ip, #0
    28d4:	159cf128 	ldrne	pc, [ip, #296]	; 0x128
    28d8:	e3a00000 	mov	r0, #0
    28dc:	e12fff1e 	bx	lr

000028e0 <glDepthRangef>:
    28e0:	ee1dcf70 	mrc	15, 0, ip, cr13, cr0, {3}
    28e4:	e59cc00c 	ldr	ip, [ip, #12]
    28e8:	e35c0000 	cmp	ip, #0
    28ec:	159cf12c 	ldrne	pc, [ip, #300]	; 0x12c
    28f0:	e3a00000 	mov	r0, #0
    28f4:	e12fff1e 	bx	lr

000028f8 <glDetachShader>:
    28f8:	ee1dcf70 	mrc	15, 0, ip, cr13, cr0, {3}
    28fc:	e59cc00c 	ldr	ip, [ip, #12]
    2900:	e35c0000 	cmp	ip, #0
    2904:	159cf13c 	ldrne	pc, [ip, #316]	; 0x13c
    2908:	e3a00000 	mov	r0, #0
    290c:	e12fff1e 	bx	lr

00002910 <glDisable>:
    2910:	ee1dcf70 	mrc	15, 0, ip, cr13, cr0, {3}
    2914:	e59cc00c 	ldr	ip, [ip, #12]
    2918:	e35c0000 	cmp	ip, #0
    291c:	159cf140 	ldrne	pc, [ip, #320]	; 0x140
    2920:	e3a00000 	mov	r0, #0
    2924:	e12fff1e 	bx	lr

00002928 <glDisableVertexAttribArray>:
    2928:	ee1dcf70 	mrc	15, 0, ip, cr13, cr0, {3}
    292c:	e59cc00c 	ldr	ip, [ip, #12]
    2930:	e35c0000 	cmp	ip, #0
    2934:	159cf14c 	ldrne	pc, [ip, #332]	; 0x14c
    2938:	e3a00000 	mov	r0, #0
    293c:	e12fff1e 	bx	lr

00002940 <glDrawArrays>:
    2940:	ee1dcf70 	mrc	15, 0, ip, cr13, cr0, {3}
    2944:	e59cc00c 	ldr	ip, [ip, #12]
    2948:	e35c0000 	cmp	ip, #0
    294c:	159cf154 	ldrne	pc, [ip, #340]	; 0x154
    2950:	e3a00000 	mov	r0, #0
    2954:	e12fff1e 	bx	lr

00002958 <glDrawElements>:
    2958:	ee1dcf70 	mrc	15, 0, ip, cr13, cr0, {3}
    295c:	e59cc00c 	ldr	ip, [ip, #12]
    2960:	e35c0000 	cmp	ip, #0
    2964:	159cf158 	ldrne	pc, [ip, #344]	; 0x158
    2968:	e3a00000 	mov	r0, #0
    296c:	e12fff1e 	bx	lr

00002970 <glEnable>:
    2970:	ee1dcf70 	mrc	15, 0, ip, cr13, cr0, {3}
    2974:	e59cc00c 	ldr	ip, [ip, #12]
    2978:	e35c0000 	cmp	ip, #0
    297c:	159cf184 	ldrne	pc, [ip, #388]	; 0x184
    2980:	e3a00000 	mov	r0, #0
    2984:	e12fff1e 	bx	lr

00002988 <glEnableVertexAttribArray>:
    2988:	ee1dcf70 	mrc	15, 0, ip, cr13, cr0, {3}
    298c:	e59cc00c 	ldr	ip, [ip, #12]
    2990:	e35c0000 	cmp	ip, #0
    2994:	159cf190 	ldrne	pc, [ip, #400]	; 0x190
    2998:	e3a00000 	mov	r0, #0
    299c:	e12fff1e 	bx	lr

000029a0 <glFinish>:
    29a0:	ee1dcf70 	mrc	15, 0, ip, cr13, cr0, {3}
    29a4:	e59cc00c 	ldr	ip, [ip, #12]
    29a8:	e35c0000 	cmp	ip, #0
    29ac:	159cf1cc 	ldrne	pc, [ip, #460]	; 0x1cc
    29b0:	e3a00000 	mov	r0, #0
    29b4:	e12fff1e 	bx	lr

000029b8 <glFlush>:
    29b8:	ee1dcf70 	mrc	15, 0, ip, cr13, cr0, {3}
    29bc:	e59cc00c 	ldr	ip, [ip, #12]
    29c0:	e35c0000 	cmp	ip, #0
    29c4:	159cf1d4 	ldrne	pc, [ip, #468]	; 0x1d4
    29c8:	e3a00000 	mov	r0, #0
    29cc:	e12fff1e 	bx	lr

000029d0 <glFramebufferRenderbuffer>:
    29d0:	ee1dcf70 	mrc	15, 0, ip, cr13, cr0, {3}
    29d4:	e59cc00c 	ldr	ip, [ip, #12]
    29d8:	e35c0000 	cmp	ip, #0
    29dc:	159cf1f0 	ldrne	pc, [ip, #496]	; 0x1f0
    29e0:	e3a00000 	mov	r0, #0
    29e4:	e12fff1e 	bx	lr

000029e8 <glFramebufferTexture2D>:
    29e8:	ee1dcf70 	mrc	15, 0, ip, cr13, cr0, {3}
    29ec:	e59cc00c 	ldr	ip, [ip, #12]
    29f0:	e35c0000 	cmp	ip, #0
    29f4:	159cf1f8 	ldrne	pc, [ip, #504]	; 0x1f8
    29f8:	e3a00000 	mov	r0, #0
    29fc:	e12fff1e 	bx	lr

00002a00 <glFrontFace>:
    2a00:	ee1dcf70 	mrc	15, 0, ip, cr13, cr0, {3}
    2a04:	e59cc00c 	ldr	ip, [ip, #12]
    2a08:	e35c0000 	cmp	ip, #0
    2a0c:	159cf208 	ldrne	pc, [ip, #520]	; 0x208
    2a10:	e3a00000 	mov	r0, #0
    2a14:	e12fff1e 	bx	lr

00002a18 <glGenBuffers>:
    2a18:	ee1dcf70 	mrc	15, 0, ip, cr13, cr0, {3}
    2a1c:	e59cc00c 	ldr	ip, [ip, #12]
    2a20:	e35c0000 	cmp	ip, #0
    2a24:	159cf21c 	ldrne	pc, [ip, #540]	; 0x21c
    2a28:	e3a00000 	mov	r0, #0
    2a2c:	e12fff1e 	bx	lr

00002a30 <glGenerateMipmap>:
    2a30:	ee1dcf70 	mrc	15, 0, ip, cr13, cr0, {3}
    2a34:	e59cc00c 	ldr	ip, [ip, #12]
    2a38:	e35c0000 	cmp	ip, #0
    2a3c:	159cf240 	ldrne	pc, [ip, #576]	; 0x240
    2a40:	e3a00000 	mov	r0, #0
    2a44:	e12fff1e 	bx	lr

00002a48 <glGenFramebuffers>:
    2a48:	ee1dcf70 	mrc	15, 0, ip, cr13, cr0, {3}
    2a4c:	e59cc00c 	ldr	ip, [ip, #12]
    2a50:	e35c0000 	cmp	ip, #0
    2a54:	159cf224 	ldrne	pc, [ip, #548]	; 0x224
    2a58:	e3a00000 	mov	r0, #0
    2a5c:	e12fff1e 	bx	lr

00002a60 <glGenRenderbuffers>:
    2a60:	ee1dcf70 	mrc	15, 0, ip, cr13, cr0, {3}
    2a64:	e59cc00c 	ldr	ip, [ip, #12]
    2a68:	e35c0000 	cmp	ip, #0
    2a6c:	159cf230 	ldrne	pc, [ip, #560]	; 0x230
    2a70:	e3a00000 	mov	r0, #0
    2a74:	e12fff1e 	bx	lr

00002a78 <glGenTextures>:
    2a78:	ee1dcf70 	mrc	15, 0, ip, cr13, cr0, {3}
    2a7c:	e59cc00c 	ldr	ip, [ip, #12]
    2a80:	e35c0000 	cmp	ip, #0
    2a84:	159cf238 	ldrne	pc, [ip, #568]	; 0x238
    2a88:	e3a00000 	mov	r0, #0
    2a8c:	e12fff1e 	bx	lr

00002a90 <glGetActiveAttrib>:
    2a90:	ee1dcf70 	mrc	15, 0, ip, cr13, cr0, {3}
    2a94:	e59cc00c 	ldr	ip, [ip, #12]
    2a98:	e35c0000 	cmp	ip, #0
    2a9c:	159cf248 	ldrne	pc, [ip, #584]	; 0x248
    2aa0:	e3a00000 	mov	r0, #0
    2aa4:	e12fff1e 	bx	lr

00002aa8 <glGetActiveUniform>:
    2aa8:	ee1dcf70 	mrc	15, 0, ip, cr13, cr0, {3}
    2aac:	e59cc00c 	ldr	ip, [ip, #12]
    2ab0:	e35c0000 	cmp	ip, #0
    2ab4:	159cf24c 	ldrne	pc, [ip, #588]	; 0x24c
    2ab8:	e3a00000 	mov	r0, #0
    2abc:	e12fff1e 	bx	lr

00002ac0 <glGetAttachedShaders>:
    2ac0:	ee1dcf70 	mrc	15, 0, ip, cr13, cr0, {3}
    2ac4:	e59cc00c 	ldr	ip, [ip, #12]
    2ac8:	e35c0000 	cmp	ip, #0
    2acc:	159cf250 	ldrne	pc, [ip, #592]	; 0x250
    2ad0:	e3a00000 	mov	r0, #0
    2ad4:	e12fff1e 	bx	lr

00002ad8 <glGetAttribLocation>:
    2ad8:	ee1dcf70 	mrc	15, 0, ip, cr13, cr0, {3}
    2adc:	e59cc00c 	ldr	ip, [ip, #12]
    2ae0:	e35c0000 	cmp	ip, #0
    2ae4:	159cf254 	ldrne	pc, [ip, #596]	; 0x254
    2ae8:	e3a00000 	mov	r0, #0
    2aec:	e12fff1e 	bx	lr
    2af0:	e3a00000 	mov	r0, #0

00002af4 <glGetBooleanv>:
    2af4:	ee1dcf70 	mrc	15, 0, ip, cr13, cr0, {3}
    2af8:	e59cc00c 	ldr	ip, [ip, #12]
    2afc:	e35c0000 	cmp	ip, #0
    2b00:	159cf258 	ldrne	pc, [ip, #600]	; 0x258
    2b04:	e3a00000 	mov	r0, #0
    2b08:	e12fff1e 	bx	lr

00002b0c <glGetBufferParameteriv>:
    2b0c:	ee1dcf70 	mrc	15, 0, ip, cr13, cr0, {3}
    2b10:	e59cc00c 	ldr	ip, [ip, #12]
    2b14:	e35c0000 	cmp	ip, #0
    2b18:	159cf25c 	ldrne	pc, [ip, #604]	; 0x25c
    2b1c:	e3a00000 	mov	r0, #0
    2b20:	e12fff1e 	bx	lr

00002b24 <glGetError>:
    2b24:	ee1dcf70 	mrc	15, 0, ip, cr13, cr0, {3}
    2b28:	e59cc00c 	ldr	ip, [ip, #12]
    2b2c:	e35c0000 	cmp	ip, #0
    2b30:	159cf27c 	ldrne	pc, [ip, #636]	; 0x27c
    2b34:	e3a00000 	mov	r0, #0
    2b38:	e12fff1e 	bx	lr
    2b3c:	e3a00000 	mov	r0, #0

00002b40 <glGetFloatv>:
    2b40:	ee1dcf70 	mrc	15, 0, ip, cr13, cr0, {3}
    2b44:	e59cc00c 	ldr	ip, [ip, #12]
    2b48:	e35c0000 	cmp	ip, #0
    2b4c:	159cf28c 	ldrne	pc, [ip, #652]	; 0x28c
    2b50:	e3a00000 	mov	r0, #0
    2b54:	e12fff1e 	bx	lr

00002b58 <glGetFramebufferAttachmentParameteriv>:
    2b58:	ee1dcf70 	mrc	15, 0, ip, cr13, cr0, {3}
    2b5c:	e59cc00c 	ldr	ip, [ip, #12]
    2b60:	e35c0000 	cmp	ip, #0
    2b64:	159cf290 	ldrne	pc, [ip, #656]	; 0x290
    2b68:	e3a00000 	mov	r0, #0
    2b6c:	e12fff1e 	bx	lr

00002b70 <glGetIntegerv>:
    2b70:	ee1dcf70 	mrc	15, 0, ip, cr13, cr0, {3}
    2b74:	e59cc00c 	ldr	ip, [ip, #12]
    2b78:	e35c0000 	cmp	ip, #0
    2b7c:	159cf298 	ldrne	pc, [ip, #664]	; 0x298
    2b80:	e3a00000 	mov	r0, #0
    2b84:	e12fff1e 	bx	lr

00002b88 <glGetProgramiv>:
    2b88:	ee1dcf70 	mrc	15, 0, ip, cr13, cr0, {3}
    2b8c:	e59cc00c 	ldr	ip, [ip, #12]
    2b90:	e35c0000 	cmp	ip, #0
    2b94:	159cf2d8 	ldrne	pc, [ip, #728]	; 0x2d8
    2b98:	e3a00000 	mov	r0, #0
    2b9c:	e12fff1e 	bx	lr

00002ba0 <glGetProgramInfoLog>:
    2ba0:	ee1dcf70 	mrc	15, 0, ip, cr13, cr0, {3}
    2ba4:	e59cc00c 	ldr	ip, [ip, #12]
    2ba8:	e35c0000 	cmp	ip, #0
    2bac:	159cf2d4 	ldrne	pc, [ip, #724]	; 0x2d4
    2bb0:	e3a00000 	mov	r0, #0
    2bb4:	e12fff1e 	bx	lr

00002bb8 <glGetRenderbufferParameteriv>:
    2bb8:	ee1dcf70 	mrc	15, 0, ip, cr13, cr0, {3}
    2bbc:	e59cc00c 	ldr	ip, [ip, #12]
    2bc0:	e35c0000 	cmp	ip, #0
    2bc4:	159cf2dc 	ldrne	pc, [ip, #732]	; 0x2dc
    2bc8:	e3a00000 	mov	r0, #0
    2bcc:	e12fff1e 	bx	lr

00002bd0 <glGetShaderiv>:
    2bd0:	ee1dcf70 	mrc	15, 0, ip, cr13, cr0, {3}
    2bd4:	e59cc00c 	ldr	ip, [ip, #12]
    2bd8:	e35c0000 	cmp	ip, #0
    2bdc:	159cf2f0 	ldrne	pc, [ip, #752]	; 0x2f0
    2be0:	e3a00000 	mov	r0, #0
    2be4:	e12fff1e 	bx	lr

00002be8 <glGetShaderInfoLog>:
    2be8:	ee1dcf70 	mrc	15, 0, ip, cr13, cr0, {3}
    2bec:	e59cc00c 	ldr	ip, [ip, #12]
    2bf0:	e35c0000 	cmp	ip, #0
    2bf4:	159cf2e4 	ldrne	pc, [ip, #740]	; 0x2e4
    2bf8:	e3a00000 	mov	r0, #0
    2bfc:	e12fff1e 	bx	lr

00002c00 <glGetShaderPrecisionFormat>:
    2c00:	ee1dcf70 	mrc	15, 0, ip, cr13, cr0, {3}
    2c04:	e59cc00c 	ldr	ip, [ip, #12]
    2c08:	e35c0000 	cmp	ip, #0
    2c0c:	159cf2e8 	ldrne	pc, [ip, #744]	; 0x2e8
    2c10:	e3a00000 	mov	r0, #0
    2c14:	e12fff1e 	bx	lr

00002c18 <glGetShaderSource>:
    2c18:	ee1dcf70 	mrc	15, 0, ip, cr13, cr0, {3}
    2c1c:	e59cc00c 	ldr	ip, [ip, #12]
    2c20:	e35c0000 	cmp	ip, #0
    2c24:	159cf2ec 	ldrne	pc, [ip, #748]	; 0x2ec
    2c28:	e3a00000 	mov	r0, #0
    2c2c:	e12fff1e 	bx	lr

00002c30 <glGetString>:
    2c30:	ee1dcf70 	mrc	15, 0, ip, cr13, cr0, {3}
    2c34:	e59cc00c 	ldr	ip, [ip, #12]
    2c38:	e35c0000 	cmp	ip, #0
    2c3c:	159cf2f4 	ldrne	pc, [ip, #756]	; 0x2f4
    2c40:	e3a00000 	mov	r0, #0
    2c44:	e12fff1e 	bx	lr
    2c48:	e3a00000 	mov	r0, #0

00002c4c <glGetTexParameterfv>:
    2c4c:	ee1dcf70 	mrc	15, 0, ip, cr13, cr0, {3}
    2c50:	e59cc00c 	ldr	ip, [ip, #12]
    2c54:	e35c0000 	cmp	ip, #0
    2c58:	159cf314 	ldrne	pc, [ip, #788]	; 0x314
    2c5c:	e3a00000 	mov	r0, #0
    2c60:	e12fff1e 	bx	lr

00002c64 <glGetTexParameteriv>:
    2c64:	ee1dcf70 	mrc	15, 0, ip, cr13, cr0, {3}
    2c68:	e59cc00c 	ldr	ip, [ip, #12]
    2c6c:	e35c0000 	cmp	ip, #0
    2c70:	159cf318 	ldrne	pc, [ip, #792]	; 0x318
    2c74:	e3a00000 	mov	r0, #0
    2c78:	e12fff1e 	bx	lr

00002c7c <glGetUniformfv>:
    2c7c:	ee1dcf70 	mrc	15, 0, ip, cr13, cr0, {3}
    2c80:	e59cc00c 	ldr	ip, [ip, #12]
    2c84:	e35c0000 	cmp	ip, #0
    2c88:	159cf328 	ldrne	pc, [ip, #808]	; 0x328
    2c8c:	e3a00000 	mov	r0, #0
    2c90:	e12fff1e 	bx	lr

00002c94 <glGetUniformiv>:
    2c94:	ee1dcf70 	mrc	15, 0, ip, cr13, cr0, {3}
    2c98:	e59cc00c 	ldr	ip, [ip, #12]
    2c9c:	e35c0000 	cmp	ip, #0
    2ca0:	159cf32c 	ldrne	pc, [ip, #812]	; 0x32c
    2ca4:	e3a00000 	mov	r0, #0
    2ca8:	e12fff1e 	bx	lr

00002cac <glGetUniformLocation>:
    2cac:	ee1dcf70 	mrc	15, 0, ip, cr13, cr0, {3}
    2cb0:	e59cc00c 	ldr	ip, [ip, #12]
    2cb4:	e35c0000 	cmp	ip, #0
    2cb8:	159cf324 	ldrne	pc, [ip, #804]	; 0x324
    2cbc:	e3a00000 	mov	r0, #0
    2cc0:	e12fff1e 	bx	lr
    2cc4:	e3a00000 	mov	r0, #0

00002cc8 <glGetVertexAttribfv>:
    2cc8:	ee1dcf70 	mrc	15, 0, ip, cr13, cr0, {3}
    2ccc:	e59cc00c 	ldr	ip, [ip, #12]
    2cd0:	e35c0000 	cmp	ip, #0
    2cd4:	159cf334 	ldrne	pc, [ip, #820]	; 0x334
    2cd8:	e3a00000 	mov	r0, #0
    2cdc:	e12fff1e 	bx	lr

00002ce0 <glGetVertexAttribiv>:
    2ce0:	ee1dcf70 	mrc	15, 0, ip, cr13, cr0, {3}
    2ce4:	e59cc00c 	ldr	ip, [ip, #12]
    2ce8:	e35c0000 	cmp	ip, #0
    2cec:	159cf338 	ldrne	pc, [ip, #824]	; 0x338
    2cf0:	e3a00000 	mov	r0, #0
    2cf4:	e12fff1e 	bx	lr

00002cf8 <glGetVertexAttribPointerv>:
    2cf8:	ee1dcf70 	mrc	15, 0, ip, cr13, cr0, {3}
    2cfc:	e59cc00c 	ldr	ip, [ip, #12]
    2d00:	e35c0000 	cmp	ip, #0
    2d04:	159cf330 	ldrne	pc, [ip, #816]	; 0x330
    2d08:	e3a00000 	mov	r0, #0
    2d0c:	e12fff1e 	bx	lr

00002d10 <glHint>:
    2d10:	ee1dcf70 	mrc	15, 0, ip, cr13, cr0, {3}
    2d14:	e59cc00c 	ldr	ip, [ip, #12]
    2d18:	e35c0000 	cmp	ip, #0
    2d1c:	159cf33c 	ldrne	pc, [ip, #828]	; 0x33c
    2d20:	e3a00000 	mov	r0, #0
    2d24:	e12fff1e 	bx	lr

00002d28 <glIsBuffer>:
    2d28:	ee1dcf70 	mrc	15, 0, ip, cr13, cr0, {3}
    2d2c:	e59cc00c 	ldr	ip, [ip, #12]
    2d30:	e35c0000 	cmp	ip, #0
    2d34:	159cf340 	ldrne	pc, [ip, #832]	; 0x340
    2d38:	e3a00000 	mov	r0, #0
    2d3c:	e12fff1e 	bx	lr
    2d40:	e3a00000 	mov	r0, #0

00002d44 <glIsEnabled>:
    2d44:	ee1dcf70 	mrc	15, 0, ip, cr13, cr0, {3}
    2d48:	e59cc00c 	ldr	ip, [ip, #12]
    2d4c:	e35c0000 	cmp	ip, #0
    2d50:	159cf344 	ldrne	pc, [ip, #836]	; 0x344
    2d54:	e3a00000 	mov	r0, #0
    2d58:	e12fff1e 	bx	lr
    2d5c:	e3a00000 	mov	r0, #0

00002d60 <glIsFramebuffer>:
    2d60:	ee1dcf70 	mrc	15, 0, ip, cr13, cr0, {3}
    2d64:	e59cc00c 	ldr	ip, [ip, #12]
    2d68:	e35c0000 	cmp	ip, #0
    2d6c:	159cf34c 	ldrne	pc, [ip, #844]	; 0x34c
    2d70:	e3a00000 	mov	r0, #0
    2d74:	e12fff1e 	bx	lr
    2d78:	e3a00000 	mov	r0, #0

00002d7c <glIsProgram>:
    2d7c:	ee1dcf70 	mrc	15, 0, ip, cr13, cr0, {3}
    2d80:	e59cc00c 	ldr	ip, [ip, #12]
    2d84:	e35c0000 	cmp	ip, #0
    2d88:	159cf354 	ldrne	pc, [ip, #852]	; 0x354
    2d8c:	e3a00000 	mov	r0, #0
    2d90:	e12fff1e 	bx	lr
    2d94:	e3a00000 	mov	r0, #0

00002d98 <glIsRenderbuffer>:
    2d98:	ee1dcf70 	mrc	15, 0, ip, cr13, cr0, {3}
    2d9c:	e59cc00c 	ldr	ip, [ip, #12]
    2da0:	e35c0000 	cmp	ip, #0
    2da4:	159cf358 	ldrne	pc, [ip, #856]	; 0x358
    2da8:	e3a00000 	mov	r0, #0
    2dac:	e12fff1e 	bx	lr
    2db0:	e3a00000 	mov	r0, #0

00002db4 <glIsShader>:
    2db4:	ee1dcf70 	mrc	15, 0, ip, cr13, cr0, {3}
    2db8:	e59cc00c 	ldr	ip, [ip, #12]
    2dbc:	e35c0000 	cmp	ip, #0
    2dc0:	159cf360 	ldrne	pc, [ip, #864]	; 0x360
    2dc4:	e3a00000 	mov	r0, #0
    2dc8:	e12fff1e 	bx	lr
    2dcc:	e3a00000 	mov	r0, #0

00002dd0 <glIsTexture>:
    2dd0:	ee1dcf70 	mrc	15, 0, ip, cr13, cr0, {3}
    2dd4:	e59cc00c 	ldr	ip, [ip, #12]
    2dd8:	e35c0000 	cmp	ip, #0
    2ddc:	159cf364 	ldrne	pc, [ip, #868]	; 0x364
    2de0:	e3a00000 	mov	r0, #0
    2de4:	e12fff1e 	bx	lr
    2de8:	e3a00000 	mov	r0, #0

00002dec <glLineWidth>:
    2dec:	ee1dcf70 	mrc	15, 0, ip, cr13, cr0, {3}
    2df0:	e59cc00c 	ldr	ip, [ip, #12]
    2df4:	e35c0000 	cmp	ip, #0
    2df8:	159cf39c 	ldrne	pc, [ip, #924]	; 0x39c
    2dfc:	e3a00000 	mov	r0, #0
    2e00:	e12fff1e 	bx	lr

00002e04 <glLinkProgram>:
    2e04:	ee1dcf70 	mrc	15, 0, ip, cr13, cr0, {3}
    2e08:	e59cc00c 	ldr	ip, [ip, #12]
    2e0c:	e35c0000 	cmp	ip, #0
    2e10:	159cf3a8 	ldrne	pc, [ip, #936]	; 0x3a8
    2e14:	e3a00000 	mov	r0, #0
    2e18:	e12fff1e 	bx	lr

00002e1c <glPixelStorei>:
    2e1c:	ee1dcf70 	mrc	15, 0, ip, cr13, cr0, {3}
    2e20:	e59cc00c 	ldr	ip, [ip, #12]
    2e24:	e35c0000 	cmp	ip, #0
    2e28:	159cf428 	ldrne	pc, [ip, #1064]	; 0x428
    2e2c:	e3a00000 	mov	r0, #0
    2e30:	e12fff1e 	bx	lr

00002e34 <glPolygonOffset>:
    2e34:	ee1dcf70 	mrc	15, 0, ip, cr13, cr0, {3}
    2e38:	e59cc00c 	ldr	ip, [ip, #12]
    2e3c:	e35c0000 	cmp	ip, #0
    2e40:	159cf454 	ldrne	pc, [ip, #1108]	; 0x454
    2e44:	e3a00000 	mov	r0, #0
    2e48:	e12fff1e 	bx	lr

00002e4c <glReadPixels>:
    2e4c:	ee1dcf70 	mrc	15, 0, ip, cr13, cr0, {3}
    2e50:	e59cc00c 	ldr	ip, [ip, #12]
    2e54:	e35c0000 	cmp	ip, #0
    2e58:	159cf470 	ldrne	pc, [ip, #1136]	; 0x470
    2e5c:	e3a00000 	mov	r0, #0
    2e60:	e12fff1e 	bx	lr

00002e64 <glReleaseShaderCompiler>:
    2e64:	ee1dcf70 	mrc	15, 0, ip, cr13, cr0, {3}
    2e68:	e59cc00c 	ldr	ip, [ip, #12]
    2e6c:	e35c0000 	cmp	ip, #0
    2e70:	159cf474 	ldrne	pc, [ip, #1140]	; 0x474
    2e74:	e3a00000 	mov	r0, #0
    2e78:	e12fff1e 	bx	lr

00002e7c <glRenderbufferStorage>:
    2e7c:	ee1dcf70 	mrc	15, 0, ip, cr13, cr0, {3}
    2e80:	e59cc00c 	ldr	ip, [ip, #12]
    2e84:	e35c0000 	cmp	ip, #0
    2e88:	159cf478 	ldrne	pc, [ip, #1144]	; 0x478
    2e8c:	e3a00000 	mov	r0, #0
    2e90:	e12fff1e 	bx	lr

00002e94 <glSampleCoverage>:
    2e94:	ee1dcf70 	mrc	15, 0, ip, cr13, cr0, {3}
    2e98:	e59cc00c 	ldr	ip, [ip, #12]
    2e9c:	e35c0000 	cmp	ip, #0
    2ea0:	159cf490 	ldrne	pc, [ip, #1168]	; 0x490
    2ea4:	e3a00000 	mov	r0, #0
    2ea8:	e12fff1e 	bx	lr

00002eac <glScissor>:
    2eac:	ee1dcf70 	mrc	15, 0, ip, cr13, cr0, {3}
    2eb0:	e59cc00c 	ldr	ip, [ip, #12]
    2eb4:	e35c0000 	cmp	ip, #0
    2eb8:	159cf4a8 	ldrne	pc, [ip, #1192]	; 0x4a8
    2ebc:	e3a00000 	mov	r0, #0
    2ec0:	e12fff1e 	bx	lr

00002ec4 <glShaderBinary>:
    2ec4:	ee1dcf70 	mrc	15, 0, ip, cr13, cr0, {3}
    2ec8:	e59cc00c 	ldr	ip, [ip, #12]
    2ecc:	e35c0000 	cmp	ip, #0
    2ed0:	159cf4b8 	ldrne	pc, [ip, #1208]	; 0x4b8
    2ed4:	e3a00000 	mov	r0, #0
    2ed8:	e12fff1e 	bx	lr

00002edc <glShaderSource>:
    2edc:	ee1dcf70 	mrc	15, 0, ip, cr13, cr0, {3}
    2ee0:	e59cc00c 	ldr	ip, [ip, #12]
    2ee4:	e35c0000 	cmp	ip, #0
    2ee8:	159cf4bc 	ldrne	pc, [ip, #1212]	; 0x4bc
    2eec:	e3a00000 	mov	r0, #0
    2ef0:	e12fff1e 	bx	lr

00002ef4 <glStencilFunc>:
    2ef4:	ee1dcf70 	mrc	15, 0, ip, cr13, cr0, {3}
    2ef8:	e59cc00c 	ldr	ip, [ip, #12]
    2efc:	e35c0000 	cmp	ip, #0
    2f00:	159cf4c4 	ldrne	pc, [ip, #1220]	; 0x4c4
    2f04:	e3a00000 	mov	r0, #0
    2f08:	e12fff1e 	bx	lr

00002f0c <glStencilFuncSeparate>:
    2f0c:	ee1dcf70 	mrc	15, 0, ip, cr13, cr0, {3}
    2f10:	e59cc00c 	ldr	ip, [ip, #12]
    2f14:	e35c0000 	cmp	ip, #0
    2f18:	159cf4c8 	ldrne	pc, [ip, #1224]	; 0x4c8
    2f1c:	e3a00000 	mov	r0, #0
    2f20:	e12fff1e 	bx	lr

00002f24 <glStencilMask>:
    2f24:	ee1dcf70 	mrc	15, 0, ip, cr13, cr0, {3}
    2f28:	e59cc00c 	ldr	ip, [ip, #12]
    2f2c:	e35c0000 	cmp	ip, #0
    2f30:	159cf4cc 	ldrne	pc, [ip, #1228]	; 0x4cc
    2f34:	e3a00000 	mov	r0, #0
    2f38:	e12fff1e 	bx	lr

00002f3c <glStencilMaskSeparate>:
    2f3c:	ee1dcf70 	mrc	15, 0, ip, cr13, cr0, {3}
    2f40:	e59cc00c 	ldr	ip, [ip, #12]
    2f44:	e35c0000 	cmp	ip, #0
    2f48:	159cf4d0 	ldrne	pc, [ip, #1232]	; 0x4d0
    2f4c:	e3a00000 	mov	r0, #0
    2f50:	e12fff1e 	bx	lr

00002f54 <glStencilOp>:
    2f54:	ee1dcf70 	mrc	15, 0, ip, cr13, cr0, {3}
    2f58:	e59cc00c 	ldr	ip, [ip, #12]
    2f5c:	e35c0000 	cmp	ip, #0
    2f60:	159cf4d4 	ldrne	pc, [ip, #1236]	; 0x4d4
    2f64:	e3a00000 	mov	r0, #0
    2f68:	e12fff1e 	bx	lr

00002f6c <glStencilOpSeparate>:
    2f6c:	ee1dcf70 	mrc	15, 0, ip, cr13, cr0, {3}
    2f70:	e59cc00c 	ldr	ip, [ip, #12]
    2f74:	e35c0000 	cmp	ip, #0
    2f78:	159cf4d8 	ldrne	pc, [ip, #1240]	; 0x4d8
    2f7c:	e3a00000 	mov	r0, #0
    2f80:	e12fff1e 	bx	lr

00002f84 <glTexImage2D>:
    2f84:	ee1dcf70 	mrc	15, 0, ip, cr13, cr0, {3}
    2f88:	e59cc00c 	ldr	ip, [ip, #12]
    2f8c:	e35c0000 	cmp	ip, #0
    2f90:	159cf51c 	ldrne	pc, [ip, #1308]	; 0x51c
    2f94:	e3a00000 	mov	r0, #0
    2f98:	e12fff1e 	bx	lr

00002f9c <glTexParameterf>:
    2f9c:	ee1dcf70 	mrc	15, 0, ip, cr13, cr0, {3}
    2fa0:	e59cc00c 	ldr	ip, [ip, #12]
    2fa4:	e35c0000 	cmp	ip, #0
    2fa8:	159cf524 	ldrne	pc, [ip, #1316]	; 0x524
    2fac:	e3a00000 	mov	r0, #0
    2fb0:	e12fff1e 	bx	lr

00002fb4 <glTexParameterfv>:
    2fb4:	ee1dcf70 	mrc	15, 0, ip, cr13, cr0, {3}
    2fb8:	e59cc00c 	ldr	ip, [ip, #12]
    2fbc:	e35c0000 	cmp	ip, #0
    2fc0:	159cf528 	ldrne	pc, [ip, #1320]	; 0x528
    2fc4:	e3a00000 	mov	r0, #0
    2fc8:	e12fff1e 	bx	lr

00002fcc <glTexParameteri>:
    2fcc:	ee1dcf70 	mrc	15, 0, ip, cr13, cr0, {3}
    2fd0:	e59cc00c 	ldr	ip, [ip, #12]
    2fd4:	e35c0000 	cmp	ip, #0
    2fd8:	159cf52c 	ldrne	pc, [ip, #1324]	; 0x52c
    2fdc:	e3a00000 	mov	r0, #0
    2fe0:	e12fff1e 	bx	lr

00002fe4 <glTexParameteriv>:
    2fe4:	ee1dcf70 	mrc	15, 0, ip, cr13, cr0, {3}
    2fe8:	e59cc00c 	ldr	ip, [ip, #12]
    2fec:	e35c0000 	cmp	ip, #0
    2ff0:	159cf530 	ldrne	pc, [ip, #1328]	; 0x530
    2ff4:	e3a00000 	mov	r0, #0
    2ff8:	e12fff1e 	bx	lr

00002ffc <glTexSubImage2D>:
    2ffc:	ee1dcf70 	mrc	15, 0, ip, cr13, cr0, {3}
    3000:	e59cc00c 	ldr	ip, [ip, #12]
    3004:	e35c0000 	cmp	ip, #0
    3008:	159cf544 	ldrne	pc, [ip, #1348]	; 0x544
    300c:	e3a00000 	mov	r0, #0
    3010:	e12fff1e 	bx	lr

00003014 <glUniform1f>:
    3014:	ee1dcf70 	mrc	15, 0, ip, cr13, cr0, {3}
    3018:	e59cc00c 	ldr	ip, [ip, #12]
    301c:	e35c0000 	cmp	ip, #0
    3020:	159cf558 	ldrne	pc, [ip, #1368]	; 0x558
    3024:	e3a00000 	mov	r0, #0
    3028:	e12fff1e 	bx	lr

0000302c <glUniform1fv>:
    302c:	ee1dcf70 	mrc	15, 0, ip, cr13, cr0, {3}
    3030:	e59cc00c 	ldr	ip, [ip, #12]
    3034:	e35c0000 	cmp	ip, #0
    3038:	159cf55c 	ldrne	pc, [ip, #1372]	; 0x55c
    303c:	e3a00000 	mov	r0, #0
    3040:	e12fff1e 	bx	lr

00003044 <glUniform1i>:
    3044:	ee1dcf70 	mrc	15, 0, ip, cr13, cr0, {3}
    3048:	e59cc00c 	ldr	ip, [ip, #12]
    304c:	e35c0000 	cmp	ip, #0
    3050:	159cf560 	ldrne	pc, [ip, #1376]	; 0x560
    3054:	e3a00000 	mov	r0, #0
    3058:	e12fff1e 	bx	lr

0000305c <glUniform1iv>:
    305c:	ee1dcf70 	mrc	15, 0, ip, cr13, cr0, {3}
    3060:	e59cc00c 	ldr	ip, [ip, #12]
    3064:	e35c0000 	cmp	ip, #0
    3068:	159cf564 	ldrne	pc, [ip, #1380]	; 0x564
    306c:	e3a00000 	mov	r0, #0
    3070:	e12fff1e 	bx	lr

00003074 <glUniform2f>:
    3074:	ee1dcf70 	mrc	15, 0, ip, cr13, cr0, {3}
    3078:	e59cc00c 	ldr	ip, [ip, #12]
    307c:	e35c0000 	cmp	ip, #0
    3080:	159cf568 	ldrne	pc, [ip, #1384]	; 0x568
    3084:	e3a00000 	mov	r0, #0
    3088:	e12fff1e 	bx	lr

0000308c <glUniform2fv>:
    308c:	ee1dcf70 	mrc	15, 0, ip, cr13, cr0, {3}
    3090:	e59cc00c 	ldr	ip, [ip, #12]
    3094:	e35c0000 	cmp	ip, #0
    3098:	159cf56c 	ldrne	pc, [ip, #1388]	; 0x56c
    309c:	e3a00000 	mov	r0, #0
    30a0:	e12fff1e 	bx	lr

000030a4 <glUniform2i>:
    30a4:	ee1dcf70 	mrc	15, 0, ip, cr13, cr0, {3}
    30a8:	e59cc00c 	ldr	ip, [ip, #12]
    30ac:	e35c0000 	cmp	ip, #0
    30b0:	159cf570 	ldrne	pc, [ip, #1392]	; 0x570
    30b4:	e3a00000 	mov	r0, #0
    30b8:	e12fff1e 	bx	lr

000030bc <glUniform2iv>:
    30bc:	ee1dcf70 	mrc	15, 0, ip, cr13, cr0, {3}
    30c0:	e59cc00c 	ldr	ip, [ip, #12]
    30c4:	e35c0000 	cmp	ip, #0
    30c8:	159cf574 	ldrne	pc, [ip, #1396]	; 0x574
    30cc:	e3a00000 	mov	r0, #0
    30d0:	e12fff1e 	bx	lr

000030d4 <glUniform3f>:
    30d4:	ee1dcf70 	mrc	15, 0, ip, cr13, cr0, {3}
    30d8:	e59cc00c 	ldr	ip, [ip, #12]
    30dc:	e35c0000 	cmp	ip, #0
    30e0:	159cf578 	ldrne	pc, [ip, #1400]	; 0x578
    30e4:	e3a00000 	mov	r0, #0
    30e8:	e12fff1e 	bx	lr

000030ec <glUniform3fv>:
    30ec:	ee1dcf70 	mrc	15, 0, ip, cr13, cr0, {3}
    30f0:	e59cc00c 	ldr	ip, [ip, #12]
    30f4:	e35c0000 	cmp	ip, #0
    30f8:	159cf57c 	ldrne	pc, [ip, #1404]	; 0x57c
    30fc:	e3a00000 	mov	r0, #0
    3100:	e12fff1e 	bx	lr

00003104 <glUniform3i>:
    3104:	ee1dcf70 	mrc	15, 0, ip, cr13, cr0, {3}
    3108:	e59cc00c 	ldr	ip, [ip, #12]
    310c:	e35c0000 	cmp	ip, #0
    3110:	159cf580 	ldrne	pc, [ip, #1408]	; 0x580
    3114:	e3a00000 	mov	r0, #0
    3118:	e12fff1e 	bx	lr

0000311c <glUniform3iv>:
    311c:	ee1dcf70 	mrc	15, 0, ip, cr13, cr0, {3}
    3120:	e59cc00c 	ldr	ip, [ip, #12]
    3124:	e35c0000 	cmp	ip, #0
    3128:	159cf584 	ldrne	pc, [ip, #1412]	; 0x584
    312c:	e3a00000 	mov	r0, #0
    3130:	e12fff1e 	bx	lr

00003134 <glUniform4f>:
    3134:	ee1dcf70 	mrc	15, 0, ip, cr13, cr0, {3}
    3138:	e59cc00c 	ldr	ip, [ip, #12]
    313c:	e35c0000 	cmp	ip, #0
    3140:	159cf588 	ldrne	pc, [ip, #1416]	; 0x588
    3144:	e3a00000 	mov	r0, #0
    3148:	e12fff1e 	bx	lr

0000314c <glUniform4fv>:
    314c:	ee1dcf70 	mrc	15, 0, ip, cr13, cr0, {3}
    3150:	e59cc00c 	ldr	ip, [ip, #12]
    3154:	e35c0000 	cmp	ip, #0
    3158:	159cf58c 	ldrne	pc, [ip, #1420]	; 0x58c
    315c:	e3a00000 	mov	r0, #0
    3160:	e12fff1e 	bx	lr

00003164 <glUniform4i>:
    3164:	ee1dcf70 	mrc	15, 0, ip, cr13, cr0, {3}
    3168:	e59cc00c 	ldr	ip, [ip, #12]
    316c:	e35c0000 	cmp	ip, #0
    3170:	159cf590 	ldrne	pc, [ip, #1424]	; 0x590
    3174:	e3a00000 	mov	r0, #0
    3178:	e12fff1e 	bx	lr

0000317c <glUniform4iv>:
    317c:	ee1dcf70 	mrc	15, 0, ip, cr13, cr0, {3}
    3180:	e59cc00c 	ldr	ip, [ip, #12]
    3184:	e35c0000 	cmp	ip, #0
    3188:	159cf594 	ldrne	pc, [ip, #1428]	; 0x594
    318c:	e3a00000 	mov	r0, #0
    3190:	e12fff1e 	bx	lr

00003194 <glUniformMatrix2fv>:
    3194:	ee1dcf70 	mrc	15, 0, ip, cr13, cr0, {3}
    3198:	e59cc00c 	ldr	ip, [ip, #12]
    319c:	e35c0000 	cmp	ip, #0
    31a0:	159cf598 	ldrne	pc, [ip, #1432]	; 0x598
    31a4:	e3a00000 	mov	r0, #0
    31a8:	e12fff1e 	bx	lr

000031ac <glUniformMatrix3fv>:
    31ac:	ee1dcf70 	mrc	15, 0, ip, cr13, cr0, {3}
    31b0:	e59cc00c 	ldr	ip, [ip, #12]
    31b4:	e35c0000 	cmp	ip, #0
    31b8:	159cf59c 	ldrne	pc, [ip, #1436]	; 0x59c
    31bc:	e3a00000 	mov	r0, #0
    31c0:	e12fff1e 	bx	lr

000031c4 <glUniformMatrix4fv>:
    31c4:	ee1dcf70 	mrc	15, 0, ip, cr13, cr0, {3}
    31c8:	e59cc00c 	ldr	ip, [ip, #12]
    31cc:	e35c0000 	cmp	ip, #0
    31d0:	159cf5a0 	ldrne	pc, [ip, #1440]	; 0x5a0
    31d4:	e3a00000 	mov	r0, #0
    31d8:	e12fff1e 	bx	lr

000031dc <glUseProgram>:
    31dc:	ee1dcf70 	mrc	15, 0, ip, cr13, cr0, {3}
    31e0:	e59cc00c 	ldr	ip, [ip, #12]
    31e4:	e35c0000 	cmp	ip, #0
    31e8:	159cf5a8 	ldrne	pc, [ip, #1448]	; 0x5a8
    31ec:	e3a00000 	mov	r0, #0
    31f0:	e12fff1e 	bx	lr

000031f4 <glValidateProgram>:
    31f4:	ee1dcf70 	mrc	15, 0, ip, cr13, cr0, {3}
    31f8:	e59cc00c 	ldr	ip, [ip, #12]
    31fc:	e35c0000 	cmp	ip, #0
    3200:	159cf5ac 	ldrne	pc, [ip, #1452]	; 0x5ac
    3204:	e3a00000 	mov	r0, #0
    3208:	e12fff1e 	bx	lr

0000320c <glVertexAttrib1f>:
    320c:	ee1dcf70 	mrc	15, 0, ip, cr13, cr0, {3}
    3210:	e59cc00c 	ldr	ip, [ip, #12]
    3214:	e35c0000 	cmp	ip, #0
    3218:	159cf5b0 	ldrne	pc, [ip, #1456]	; 0x5b0
    321c:	e3a00000 	mov	r0, #0
    3220:	e12fff1e 	bx	lr

00003224 <glVertexAttrib1fv>:
    3224:	ee1dcf70 	mrc	15, 0, ip, cr13, cr0, {3}
    3228:	e59cc00c 	ldr	ip, [ip, #12]
    322c:	e35c0000 	cmp	ip, #0
    3230:	159cf5b4 	ldrne	pc, [ip, #1460]	; 0x5b4
    3234:	e3a00000 	mov	r0, #0
    3238:	e12fff1e 	bx	lr

0000323c <glVertexAttrib2f>:
    323c:	ee1dcf70 	mrc	15, 0, ip, cr13, cr0, {3}
    3240:	e59cc00c 	ldr	ip, [ip, #12]
    3244:	e35c0000 	cmp	ip, #0
    3248:	159cf5b8 	ldrne	pc, [ip, #1464]	; 0x5b8
    324c:	e3a00000 	mov	r0, #0
    3250:	e12fff1e 	bx	lr

00003254 <glVertexAttrib2fv>:
    3254:	ee1dcf70 	mrc	15, 0, ip, cr13, cr0, {3}
    3258:	e59cc00c 	ldr	ip, [ip, #12]
    325c:	e35c0000 	cmp	ip, #0
    3260:	159cf5bc 	ldrne	pc, [ip, #1468]	; 0x5bc
    3264:	e3a00000 	mov	r0, #0
    3268:	e12fff1e 	bx	lr

0000326c <glVertexAttrib3f>:
    326c:	ee1dcf70 	mrc	15, 0, ip, cr13, cr0, {3}
    3270:	e59cc00c 	ldr	ip, [ip, #12]
    3274:	e35c0000 	cmp	ip, #0
    3278:	159cf5c0 	ldrne	pc, [ip, #1472]	; 0x5c0
    327c:	e3a00000 	mov	r0, #0
    3280:	e12fff1e 	bx	lr

00003284 <glVertexAttrib3fv>:
    3284:	ee1dcf70 	mrc	15, 0, ip, cr13, cr0, {3}
    3288:	e59cc00c 	ldr	ip, [ip, #12]
    328c:	e35c0000 	cmp	ip, #0
    3290:	159cf5c4 	ldrne	pc, [ip, #1476]	; 0x5c4
    3294:	e3a00000 	mov	r0, #0
    3298:	e12fff1e 	bx	lr

0000329c <glVertexAttrib4f>:
    329c:	ee1dcf70 	mrc	15, 0, ip, cr13, cr0, {3}
    32a0:	e59cc00c 	ldr	ip, [ip, #12]
    32a4:	e35c0000 	cmp	ip, #0
    32a8:	159cf5c8 	ldrne	pc, [ip, #1480]	; 0x5c8
    32ac:	e3a00000 	mov	r0, #0
    32b0:	e12fff1e 	bx	lr

000032b4 <glVertexAttrib4fv>:
    32b4:	ee1dcf70 	mrc	15, 0, ip, cr13, cr0, {3}
    32b8:	e59cc00c 	ldr	ip, [ip, #12]
    32bc:	e35c0000 	cmp	ip, #0
    32c0:	159cf5cc 	ldrne	pc, [ip, #1484]	; 0x5cc
    32c4:	e3a00000 	mov	r0, #0
    32c8:	e12fff1e 	bx	lr

000032cc <glVertexAttribPointer>:
    32cc:	ee1dcf70 	mrc	15, 0, ip, cr13, cr0, {3}
    32d0:	e59cc00c 	ldr	ip, [ip, #12]
    32d4:	e35c0000 	cmp	ip, #0
    32d8:	159cf5d0 	ldrne	pc, [ip, #1488]	; 0x5d0
    32dc:	e3a00000 	mov	r0, #0
    32e0:	e12fff1e 	bx	lr

000032e4 <glViewport>:
    32e4:	ee1dcf70 	mrc	15, 0, ip, cr13, cr0, {3}
    32e8:	e59cc00c 	ldr	ip, [ip, #12]
    32ec:	e35c0000 	cmp	ip, #0
    32f0:	159cf5d8 	ldrne	pc, [ip, #1496]	; 0x5d8
    32f4:	e3a00000 	mov	r0, #0
    32f8:	e12fff1e 	bx	lr
    32fc:	ee1dcf70 	mrc	15, 0, ip, cr13, cr0, {3}
    3300:	e59cc00c 	ldr	ip, [ip, #12]
    3304:	e35c0000 	cmp	ip, #0
    3308:	159cf180 	ldrne	pc, [ip, #384]	; 0x180
    330c:	e3a00000 	mov	r0, #0
    3310:	e12fff1e 	bx	lr
    3314:	ee1dcf70 	mrc	15, 0, ip, cr13, cr0, {3}
    3318:	e59cc00c 	ldr	ip, [ip, #12]
    331c:	e35c0000 	cmp	ip, #0
    3320:	159cf17c 	ldrne	pc, [ip, #380]	; 0x17c
    3324:	e3a00000 	mov	r0, #0
    3328:	e12fff1e 	bx	lr

0000332c <glGetProgramBinaryOES>:
    332c:	ee1dcf70 	mrc	15, 0, ip, cr13, cr0, {3}
    3330:	e59cc00c 	ldr	ip, [ip, #12]
    3334:	e35c0000 	cmp	ip, #0
    3338:	159cf2d0 	ldrne	pc, [ip, #720]	; 0x2d0
    333c:	e3a00000 	mov	r0, #0
    3340:	e12fff1e 	bx	lr

00003344 <glProgramBinaryOES>:
    3344:	ee1dcf70 	mrc	15, 0, ip, cr13, cr0, {3}
    3348:	e59cc00c 	ldr	ip, [ip, #12]
    334c:	e35c0000 	cmp	ip, #0
    3350:	159cf464 	ldrne	pc, [ip, #1124]	; 0x464
    3354:	e3a00000 	mov	r0, #0
    3358:	e12fff1e 	bx	lr

0000335c <glMapBufferOES>:
    335c:	ee1dcf70 	mrc	15, 0, ip, cr13, cr0, {3}
    3360:	e59cc00c 	ldr	ip, [ip, #12]
    3364:	e35c0000 	cmp	ip, #0
    3368:	159cf3c4 	ldrne	pc, [ip, #964]	; 0x3c4
    336c:	e3a00000 	mov	r0, #0
    3370:	e12fff1e 	bx	lr
    3374:	e3a00000 	mov	r0, #0

00003378 <glUnmapBufferOES>:
    3378:	ee1dcf70 	mrc	15, 0, ip, cr13, cr0, {3}
    337c:	e59cc00c 	ldr	ip, [ip, #12]
    3380:	e35c0000 	cmp	ip, #0
    3384:	159cf5a4 	ldrne	pc, [ip, #1444]	; 0x5a4
    3388:	e3a00000 	mov	r0, #0
    338c:	e12fff1e 	bx	lr
    3390:	e3a00000 	mov	r0, #0

00003394 <glGetBufferPointervOES>:
    3394:	ee1dcf70 	mrc	15, 0, ip, cr13, cr0, {3}
    3398:	e59cc00c 	ldr	ip, [ip, #12]
    339c:	e35c0000 	cmp	ip, #0
    33a0:	159cf260 	ldrne	pc, [ip, #608]	; 0x260
    33a4:	e3a00000 	mov	r0, #0
    33a8:	e12fff1e 	bx	lr

000033ac <glTexImage3DOES>:
    33ac:	ee1dcf70 	mrc	15, 0, ip, cr13, cr0, {3}
    33b0:	e59cc00c 	ldr	ip, [ip, #12]
    33b4:	e35c0000 	cmp	ip, #0
    33b8:	159cf520 	ldrne	pc, [ip, #1312]	; 0x520
    33bc:	e3a00000 	mov	r0, #0
    33c0:	e12fff1e 	bx	lr

000033c4 <glTexSubImage3DOES>:
    33c4:	ee1dcf70 	mrc	15, 0, ip, cr13, cr0, {3}
    33c8:	e59cc00c 	ldr	ip, [ip, #12]
    33cc:	e35c0000 	cmp	ip, #0
    33d0:	159cf548 	ldrne	pc, [ip, #1352]	; 0x548
    33d4:	e3a00000 	mov	r0, #0
    33d8:	e12fff1e 	bx	lr

000033dc <glCopyTexSubImage3DOES>:
    33dc:	ee1dcf70 	mrc	15, 0, ip, cr13, cr0, {3}
    33e0:	e59cc00c 	ldr	ip, [ip, #12]
    33e4:	e35c0000 	cmp	ip, #0
    33e8:	159cf0dc 	ldrne	pc, [ip, #220]	; 0xdc
    33ec:	e3a00000 	mov	r0, #0
    33f0:	e12fff1e 	bx	lr

000033f4 <glCompressedTexImage3DOES>:
    33f4:	ee1dcf70 	mrc	15, 0, ip, cr13, cr0, {3}
    33f8:	e59cc00c 	ldr	ip, [ip, #12]
    33fc:	e35c0000 	cmp	ip, #0
    3400:	159cf0c8 	ldrne	pc, [ip, #200]	; 0xc8
    3404:	e3a00000 	mov	r0, #0
    3408:	e12fff1e 	bx	lr

0000340c <glCompressedTexSubImage3DOES>:
    340c:	ee1dcf70 	mrc	15, 0, ip, cr13, cr0, {3}
    3410:	e59cc00c 	ldr	ip, [ip, #12]
    3414:	e35c0000 	cmp	ip, #0
    3418:	159cf0d0 	ldrne	pc, [ip, #208]	; 0xd0
    341c:	e3a00000 	mov	r0, #0
    3420:	e12fff1e 	bx	lr

00003424 <glFramebufferTexture3DOES>:
    3424:	ee1dcf70 	mrc	15, 0, ip, cr13, cr0, {3}
    3428:	e59cc00c 	ldr	ip, [ip, #12]
    342c:	e35c0000 	cmp	ip, #0
    3430:	159cf204 	ldrne	pc, [ip, #516]	; 0x204
    3434:	e3a00000 	mov	r0, #0
    3438:	e12fff1e 	bx	lr

0000343c <glBindVertexArrayOES>:
    343c:	ee1dcf70 	mrc	15, 0, ip, cr13, cr0, {3}
    3440:	e59cc00c 	ldr	ip, [ip, #12]
    3444:	e35c0000 	cmp	ip, #0
    3448:	159cf034 	ldrne	pc, [ip, #52]	; 0x34
    344c:	e3a00000 	mov	r0, #0
    3450:	e12fff1e 	bx	lr

00003454 <glDeleteVertexArraysOES>:
    3454:	ee1dcf70 	mrc	15, 0, ip, cr13, cr0, {3}
    3458:	e59cc00c 	ldr	ip, [ip, #12]
    345c:	e35c0000 	cmp	ip, #0
    3460:	159cf120 	ldrne	pc, [ip, #288]	; 0x120
    3464:	e3a00000 	mov	r0, #0
    3468:	e12fff1e 	bx	lr

0000346c <glGenVertexArraysOES>:
    346c:	ee1dcf70 	mrc	15, 0, ip, cr13, cr0, {3}
    3470:	e59cc00c 	ldr	ip, [ip, #12]
    3474:	e35c0000 	cmp	ip, #0
    3478:	159cf23c 	ldrne	pc, [ip, #572]	; 0x23c
    347c:	e3a00000 	mov	r0, #0
    3480:	e12fff1e 	bx	lr

00003484 <glIsVertexArrayOES>:
    3484:	ee1dcf70 	mrc	15, 0, ip, cr13, cr0, {3}
    3488:	e59cc00c 	ldr	ip, [ip, #12]
    348c:	e35c0000 	cmp	ip, #0
    3490:	159cf368 	ldrne	pc, [ip, #872]	; 0x368
    3494:	e3a00000 	mov	r0, #0
    3498:	e12fff1e 	bx	lr
    349c:	e3a00000 	mov	r0, #0

000034a0 <glGetPerfMonitorGroupsAMD>:
    34a0:	ee1dcf70 	mrc	15, 0, ip, cr13, cr0, {3}
    34a4:	e59cc00c 	ldr	ip, [ip, #12]
    34a8:	e35c0000 	cmp	ip, #0
    34ac:	159cf2c8 	ldrne	pc, [ip, #712]	; 0x2c8
    34b0:	e3a00000 	mov	r0, #0
    34b4:	e12fff1e 	bx	lr

000034b8 <glGetPerfMonitorCountersAMD>:
    34b8:	ee1dcf70 	mrc	15, 0, ip, cr13, cr0, {3}
    34bc:	e59cc00c 	ldr	ip, [ip, #12]
    34c0:	e35c0000 	cmp	ip, #0
    34c4:	159cf2c0 	ldrne	pc, [ip, #704]	; 0x2c0
    34c8:	e3a00000 	mov	r0, #0
    34cc:	e12fff1e 	bx	lr

000034d0 <glGetPerfMonitorGroupStringAMD>:
    34d0:	ee1dcf70 	mrc	15, 0, ip, cr13, cr0, {3}
    34d4:	e59cc00c 	ldr	ip, [ip, #12]
    34d8:	e35c0000 	cmp	ip, #0
    34dc:	159cf2c4 	ldrne	pc, [ip, #708]	; 0x2c4
    34e0:	e3a00000 	mov	r0, #0
    34e4:	e12fff1e 	bx	lr

000034e8 <glGetPerfMonitorCounterStringAMD>:
    34e8:	ee1dcf70 	mrc	15, 0, ip, cr13, cr0, {3}
    34ec:	e59cc00c 	ldr	ip, [ip, #12]
    34f0:	e35c0000 	cmp	ip, #0
    34f4:	159cf2bc 	ldrne	pc, [ip, #700]	; 0x2bc
    34f8:	e3a00000 	mov	r0, #0
    34fc:	e12fff1e 	bx	lr

00003500 <glGetPerfMonitorCounterInfoAMD>:
    3500:	ee1dcf70 	mrc	15, 0, ip, cr13, cr0, {3}
    3504:	e59cc00c 	ldr	ip, [ip, #12]
    3508:	e35c0000 	cmp	ip, #0
    350c:	159cf2b8 	ldrne	pc, [ip, #696]	; 0x2b8
    3510:	e3a00000 	mov	r0, #0
    3514:	e12fff1e 	bx	lr

00003518 <glGenPerfMonitorsAMD>:
    3518:	ee1dcf70 	mrc	15, 0, ip, cr13, cr0, {3}
    351c:	e59cc00c 	ldr	ip, [ip, #12]
    3520:	e35c0000 	cmp	ip, #0
    3524:	159cf22c 	ldrne	pc, [ip, #556]	; 0x22c
    3528:	e3a00000 	mov	r0, #0
    352c:	e12fff1e 	bx	lr

00003530 <glDeletePerfMonitorsAMD>:
    3530:	ee1dcf70 	mrc	15, 0, ip, cr13, cr0, {3}
    3534:	e59cc00c 	ldr	ip, [ip, #12]
    3538:	e35c0000 	cmp	ip, #0
    353c:	159cf108 	ldrne	pc, [ip, #264]	; 0x108
    3540:	e3a00000 	mov	r0, #0
    3544:	e12fff1e 	bx	lr

00003548 <glSelectPerfMonitorCountersAMD>:
    3548:	ee1dcf70 	mrc	15, 0, ip, cr13, cr0, {3}
    354c:	e59cc00c 	ldr	ip, [ip, #12]
    3550:	e35c0000 	cmp	ip, #0
    3554:	159cf4ac 	ldrne	pc, [ip, #1196]	; 0x4ac
    3558:	e3a00000 	mov	r0, #0
    355c:	e12fff1e 	bx	lr

00003560 <glBeginPerfMonitorAMD>:
    3560:	ee1dcf70 	mrc	15, 0, ip, cr13, cr0, {3}
    3564:	e59cc00c 	ldr	ip, [ip, #12]
    3568:	e35c0000 	cmp	ip, #0
    356c:	159cf014 	ldrne	pc, [ip, #20]
    3570:	e3a00000 	mov	r0, #0
    3574:	e12fff1e 	bx	lr

00003578 <glEndPerfMonitorAMD>:
    3578:	ee1dcf70 	mrc	15, 0, ip, cr13, cr0, {3}
    357c:	e59cc00c 	ldr	ip, [ip, #12]
    3580:	e35c0000 	cmp	ip, #0
    3584:	159cf194 	ldrne	pc, [ip, #404]	; 0x194
    3588:	e3a00000 	mov	r0, #0
    358c:	e12fff1e 	bx	lr

00003590 <glGetPerfMonitorCounterDataAMD>:
    3590:	ee1dcf70 	mrc	15, 0, ip, cr13, cr0, {3}
    3594:	e59cc00c 	ldr	ip, [ip, #12]
    3598:	e35c0000 	cmp	ip, #0
    359c:	159cf2b4 	ldrne	pc, [ip, #692]	; 0x2b4
    35a0:	e3a00000 	mov	r0, #0
    35a4:	e12fff1e 	bx	lr

000035a8 <glDiscardFramebufferEXT>:
    35a8:	ee1dcf70 	mrc	15, 0, ip, cr13, cr0, {3}
    35ac:	e59cc00c 	ldr	ip, [ip, #12]
    35b0:	e35c0000 	cmp	ip, #0
    35b4:	159cf150 	ldrne	pc, [ip, #336]	; 0x150
    35b8:	e3a00000 	mov	r0, #0
    35bc:	e12fff1e 	bx	lr

000035c0 <glMultiDrawArraysEXT>:
    35c0:	ee1dcf70 	mrc	15, 0, ip, cr13, cr0, {3}
    35c4:	e59cc00c 	ldr	ip, [ip, #12]
    35c8:	e35c0000 	cmp	ip, #0
    35cc:	159cf3f4 	ldrne	pc, [ip, #1012]	; 0x3f4
    35d0:	e3a00000 	mov	r0, #0
    35d4:	e12fff1e 	bx	lr

000035d8 <glMultiDrawElementsEXT>:
    35d8:	ee1dcf70 	mrc	15, 0, ip, cr13, cr0, {3}
    35dc:	e59cc00c 	ldr	ip, [ip, #12]
    35e0:	e35c0000 	cmp	ip, #0
    35e4:	159cf3f8 	ldrne	pc, [ip, #1016]	; 0x3f8
    35e8:	e3a00000 	mov	r0, #0
    35ec:	e12fff1e 	bx	lr

000035f0 <glRenderbufferStorageMultisampleIMG>:
    35f0:	ee1dcf70 	mrc	15, 0, ip, cr13, cr0, {3}
    35f4:	e59cc00c 	ldr	ip, [ip, #12]
    35f8:	e35c0000 	cmp	ip, #0
    35fc:	159cf47c 	ldrne	pc, [ip, #1148]	; 0x47c
    3600:	e3a00000 	mov	r0, #0
    3604:	e12fff1e 	bx	lr

00003608 <glFramebufferTexture2DMultisampleIMG>:
    3608:	ee1dcf70 	mrc	15, 0, ip, cr13, cr0, {3}
    360c:	e59cc00c 	ldr	ip, [ip, #12]
    3610:	e35c0000 	cmp	ip, #0
    3614:	159cf1fc 	ldrne	pc, [ip, #508]	; 0x1fc
    3618:	e3a00000 	mov	r0, #0
    361c:	e12fff1e 	bx	lr

00003620 <glDeleteFencesNV>:
    3620:	ee1dcf70 	mrc	15, 0, ip, cr13, cr0, {3}
    3624:	e59cc00c 	ldr	ip, [ip, #12]
    3628:	e35c0000 	cmp	ip, #0
    362c:	159cf0fc 	ldrne	pc, [ip, #252]	; 0xfc
    3630:	e3a00000 	mov	r0, #0
    3634:	e12fff1e 	bx	lr

00003638 <glGenFencesNV>:
    3638:	ee1dcf70 	mrc	15, 0, ip, cr13, cr0, {3}
    363c:	e59cc00c 	ldr	ip, [ip, #12]
    3640:	e35c0000 	cmp	ip, #0
    3644:	159cf220 	ldrne	pc, [ip, #544]	; 0x220
    3648:	e3a00000 	mov	r0, #0
    364c:	e12fff1e 	bx	lr

00003650 <glIsFenceNV>:
    3650:	ee1dcf70 	mrc	15, 0, ip, cr13, cr0, {3}
    3654:	e59cc00c 	ldr	ip, [ip, #12]
    3658:	e35c0000 	cmp	ip, #0
    365c:	159cf348 	ldrne	pc, [ip, #840]	; 0x348
    3660:	e3a00000 	mov	r0, #0
    3664:	e12fff1e 	bx	lr
    3668:	e3a00000 	mov	r0, #0

0000366c <glTestFenceNV>:
    366c:	ee1dcf70 	mrc	15, 0, ip, cr13, cr0, {3}
    3670:	e59cc00c 	ldr	ip, [ip, #12]
    3674:	e35c0000 	cmp	ip, #0
    3678:	159cf4dc 	ldrne	pc, [ip, #1244]	; 0x4dc
    367c:	e3a00000 	mov	r0, #0
    3680:	e12fff1e 	bx	lr
    3684:	e3a00000 	mov	r0, #0

00003688 <glGetFenceivNV>:
    3688:	ee1dcf70 	mrc	15, 0, ip, cr13, cr0, {3}
    368c:	e59cc00c 	ldr	ip, [ip, #12]
    3690:	e35c0000 	cmp	ip, #0
    3694:	159cf280 	ldrne	pc, [ip, #640]	; 0x280
    3698:	e3a00000 	mov	r0, #0
    369c:	e12fff1e 	bx	lr

000036a0 <glFinishFenceNV>:
    36a0:	ee1dcf70 	mrc	15, 0, ip, cr13, cr0, {3}
    36a4:	e59cc00c 	ldr	ip, [ip, #12]
    36a8:	e35c0000 	cmp	ip, #0
    36ac:	159cf1d0 	ldrne	pc, [ip, #464]	; 0x1d0
    36b0:	e3a00000 	mov	r0, #0
    36b4:	e12fff1e 	bx	lr

000036b8 <glSetFenceNV>:
    36b8:	ee1dcf70 	mrc	15, 0, ip, cr13, cr0, {3}
    36bc:	e59cc00c 	ldr	ip, [ip, #12]
    36c0:	e35c0000 	cmp	ip, #0
    36c4:	159cf4b0 	ldrne	pc, [ip, #1200]	; 0x4b0
    36c8:	e3a00000 	mov	r0, #0
    36cc:	e12fff1e 	bx	lr

000036d0 <glCoverageMaskNV>:
    36d0:	ee1dcf70 	mrc	15, 0, ip, cr13, cr0, {3}
    36d4:	e59cc00c 	ldr	ip, [ip, #12]
    36d8:	e35c0000 	cmp	ip, #0
    36dc:	159cf0e0 	ldrne	pc, [ip, #224]	; 0xe0
    36e0:	e3a00000 	mov	r0, #0
    36e4:	e12fff1e 	bx	lr

000036e8 <glCoverageOperationNV>:
    36e8:	ee1dcf70 	mrc	15, 0, ip, cr13, cr0, {3}
    36ec:	e59cc00c 	ldr	ip, [ip, #12]
    36f0:	e35c0000 	cmp	ip, #0
    36f4:	159cf0e4 	ldrne	pc, [ip, #228]	; 0xe4
    36f8:	e3a00000 	mov	r0, #0
    36fc:	e12fff1e 	bx	lr

00003700 <glGetDriverControlsQCOM>:
    3700:	ee1dcf70 	mrc	15, 0, ip, cr13, cr0, {3}
    3704:	e59cc00c 	ldr	ip, [ip, #12]
    3708:	e35c0000 	cmp	ip, #0
    370c:	159cf278 	ldrne	pc, [ip, #632]	; 0x278
    3710:	e3a00000 	mov	r0, #0
    3714:	e12fff1e 	bx	lr

00003718 <glGetDriverControlStringQCOM>:
    3718:	ee1dcf70 	mrc	15, 0, ip, cr13, cr0, {3}
    371c:	e59cc00c 	ldr	ip, [ip, #12]
    3720:	e35c0000 	cmp	ip, #0
    3724:	159cf274 	ldrne	pc, [ip, #628]	; 0x274
    3728:	e3a00000 	mov	r0, #0
    372c:	e12fff1e 	bx	lr

00003730 <glEnableDriverControlQCOM>:
    3730:	ee1dcf70 	mrc	15, 0, ip, cr13, cr0, {3}
    3734:	e59cc00c 	ldr	ip, [ip, #12]
    3738:	e35c0000 	cmp	ip, #0
    373c:	159cf18c 	ldrne	pc, [ip, #396]	; 0x18c
    3740:	e3a00000 	mov	r0, #0
    3744:	e12fff1e 	bx	lr

00003748 <glDisableDriverControlQCOM>:
    3748:	ee1dcf70 	mrc	15, 0, ip, cr13, cr0, {3}
    374c:	e59cc00c 	ldr	ip, [ip, #12]
    3750:	e35c0000 	cmp	ip, #0
    3754:	159cf148 	ldrne	pc, [ip, #328]	; 0x148
    3758:	e3a00000 	mov	r0, #0
    375c:	e12fff1e 	bx	lr

00003760 <glExtGetTexturesQCOM>:
    3760:	ee1dcf70 	mrc	15, 0, ip, cr13, cr0, {3}
    3764:	e59cc00c 	ldr	ip, [ip, #12]
    3768:	e35c0000 	cmp	ip, #0
    376c:	159cf1c0 	ldrne	pc, [ip, #448]	; 0x1c0
    3770:	e3a00000 	mov	r0, #0
    3774:	e12fff1e 	bx	lr

00003778 <glExtGetBuffersQCOM>:
    3778:	ee1dcf70 	mrc	15, 0, ip, cr13, cr0, {3}
    377c:	e59cc00c 	ldr	ip, [ip, #12]
    3780:	e35c0000 	cmp	ip, #0
    3784:	159cf1a0 	ldrne	pc, [ip, #416]	; 0x1a0
    3788:	e3a00000 	mov	r0, #0
    378c:	e12fff1e 	bx	lr

00003790 <glExtGetRenderbuffersQCOM>:
    3790:	ee1dcf70 	mrc	15, 0, ip, cr13, cr0, {3}
    3794:	e59cc00c 	ldr	ip, [ip, #12]
    3798:	e35c0000 	cmp	ip, #0
    379c:	159cf1b0 	ldrne	pc, [ip, #432]	; 0x1b0
    37a0:	e3a00000 	mov	r0, #0
    37a4:	e12fff1e 	bx	lr

000037a8 <glExtGetFramebuffersQCOM>:
    37a8:	ee1dcf70 	mrc	15, 0, ip, cr13, cr0, {3}
    37ac:	e59cc00c 	ldr	ip, [ip, #12]
    37b0:	e35c0000 	cmp	ip, #0
    37b4:	159cf1a4 	ldrne	pc, [ip, #420]	; 0x1a4
    37b8:	e3a00000 	mov	r0, #0
    37bc:	e12fff1e 	bx	lr

000037c0 <glExtGetTexLevelParameterivQCOM>:
    37c0:	ee1dcf70 	mrc	15, 0, ip, cr13, cr0, {3}
    37c4:	e59cc00c 	ldr	ip, [ip, #12]
    37c8:	e35c0000 	cmp	ip, #0
    37cc:	159cf1b8 	ldrne	pc, [ip, #440]	; 0x1b8
    37d0:	e3a00000 	mov	r0, #0
    37d4:	e12fff1e 	bx	lr

000037d8 <glExtTexObjectStateOverrideiQCOM>:
    37d8:	ee1dcf70 	mrc	15, 0, ip, cr13, cr0, {3}
    37dc:	e59cc00c 	ldr	ip, [ip, #12]
    37e0:	e35c0000 	cmp	ip, #0
    37e4:	159cf1c8 	ldrne	pc, [ip, #456]	; 0x1c8
    37e8:	e3a00000 	mov	r0, #0
    37ec:	e12fff1e 	bx	lr

000037f0 <glExtGetTexSubImageQCOM>:
    37f0:	ee1dcf70 	mrc	15, 0, ip, cr13, cr0, {3}
    37f4:	e59cc00c 	ldr	ip, [ip, #12]
    37f8:	e35c0000 	cmp	ip, #0
    37fc:	159cf1bc 	ldrne	pc, [ip, #444]	; 0x1bc
    3800:	e3a00000 	mov	r0, #0
    3804:	e12fff1e 	bx	lr

00003808 <glExtGetBufferPointervQCOM>:
    3808:	ee1dcf70 	mrc	15, 0, ip, cr13, cr0, {3}
    380c:	e59cc00c 	ldr	ip, [ip, #12]
    3810:	e35c0000 	cmp	ip, #0
    3814:	159cf19c 	ldrne	pc, [ip, #412]	; 0x19c
    3818:	e3a00000 	mov	r0, #0
    381c:	e12fff1e 	bx	lr

00003820 <glExtGetShadersQCOM>:
    3820:	ee1dcf70 	mrc	15, 0, ip, cr13, cr0, {3}
    3824:	e59cc00c 	ldr	ip, [ip, #12]
    3828:	e35c0000 	cmp	ip, #0
    382c:	159cf1b4 	ldrne	pc, [ip, #436]	; 0x1b4
    3830:	e3a00000 	mov	r0, #0
    3834:	e12fff1e 	bx	lr

00003838 <glExtGetProgramsQCOM>:
    3838:	ee1dcf70 	mrc	15, 0, ip, cr13, cr0, {3}
    383c:	e59cc00c 	ldr	ip, [ip, #12]
    3840:	e35c0000 	cmp	ip, #0
    3844:	159cf1ac 	ldrne	pc, [ip, #428]	; 0x1ac
    3848:	e3a00000 	mov	r0, #0
    384c:	e12fff1e 	bx	lr

00003850 <glExtIsProgramBinaryQCOM>:
    3850:	ee1dcf70 	mrc	15, 0, ip, cr13, cr0, {3}
    3854:	e59cc00c 	ldr	ip, [ip, #12]
    3858:	e35c0000 	cmp	ip, #0
    385c:	159cf1c4 	ldrne	pc, [ip, #452]	; 0x1c4
    3860:	e3a00000 	mov	r0, #0
    3864:	e12fff1e 	bx	lr
    3868:	e3a00000 	mov	r0, #0

0000386c <glExtGetProgramBinarySourceQCOM>:
    386c:	ee1dcf70 	mrc	15, 0, ip, cr13, cr0, {3}
    3870:	e59cc00c 	ldr	ip, [ip, #12]
    3874:	e35c0000 	cmp	ip, #0
    3878:	159cf1a8 	ldrne	pc, [ip, #424]	; 0x1a8
    387c:	e3a00000 	mov	r0, #0
    3880:	e12fff1e 	bx	lr

00003884 <glStartTilingQCOM>:
    3884:	ee1dcf70 	mrc	15, 0, ip, cr13, cr0, {3}
    3888:	e59cc00c 	ldr	ip, [ip, #12]
    388c:	e35c0000 	cmp	ip, #0
    3890:	159cf4c0 	ldrne	pc, [ip, #1216]	; 0x4c0
    3894:	e3a00000 	mov	r0, #0
    3898:	e12fff1e 	bx	lr

0000389c <glEndTilingQCOM>:
    389c:	ee1dcf70 	mrc	15, 0, ip, cr13, cr0, {3}
    38a0:	e59cc00c 	ldr	ip, [ip, #12]
    38a4:	e35c0000 	cmp	ip, #0
    38a8:	159cf198 	ldrne	pc, [ip, #408]	; 0x198
    38ac:	e3a00000 	mov	r0, #0
    38b0:	e12fff1e 	bx	lr

000038b4 <glEGLImageTargetRenderbufferStorageOES>:
    38b4:	e92d4010 	push	{r4, lr}
    38b8:	e1a04000 	mov	r4, r0
    38bc:	e1a00001 	mov	r0, r1
    38c0:	ebfffb21 	bl	254c <glActiveTexture-0x28>
    38c4:	e1a01000 	mov	r1, r0
    38c8:	e1a00004 	mov	r0, r4
    38cc:	e8bd4010 	pop	{r4, lr}
    38d0:	eafffe8f 	b	3314 <glViewport+0x30>

000038d4 <glEGLImageTargetTexture2DOES>:
    38d4:	e92d4010 	push	{r4, lr}
    38d8:	e1a04000 	mov	r4, r0
    38dc:	e1a00001 	mov	r0, r1
    38e0:	ebfffb19 	bl	254c <glActiveTexture-0x28>
    38e4:	e1a01000 	mov	r1, r0
    38e8:	e1a00004 	mov	r0, r4
    38ec:	e8bd4010 	pop	{r4, lr}
    38f0:	eafffe81 	b	32fc <glViewport+0x18>

Disassembly of section .ARM.exidx:

000038f4 <.ARM.exidx>:
    38f4:	00000000 	andeq	r0, r0, r0
    38f8:	00000001 	andeq	r0, r0, r1
    38fc:	7fffec78 	svcvc	0x00ffec78
    3900:	80b0b0b0 	ldrhthi	fp, [r0], r0
    3904:	7fffffb0 	svcvc	0x00ffffb0
    3908:	80a8b0b0 	strhhi	fp, [r8], r0

Disassembly of section .init_array:

00004000 <__INIT_ARRAY__>:
    4000:	ffffffff 	undefined instruction 0xffffffff
    4004:	00000000 	andeq	r0, r0, r0

Disassembly of section .fini_array:

00004008 <__FINI_ARRAY__>:
    4008:	ffffffff 	undefined instruction 0xffffffff
    400c:	ac102564 	cfldr32ge	mvfx2, [r0], {100}	; 0x64
    4010:	00000000 	andeq	r0, r0, r0

Disassembly of section .dynamic:

00004014 <.dynamic>:
    4014:	00000003 	andeq	r0, r0, r3
    4018:	000040fc 	strdeq	r4, [r0], -ip
    401c:	00000002 	andeq	r0, r0, r2
    4020:	00000010 	andeq	r0, r0, r0, lsl r0
    4024:	00000017 	andeq	r0, r0, r7, lsl r0
    4028:	00002518 	andeq	r2, r0, r8, lsl r5
    402c:	00000014 	andeq	r0, r0, r4, lsl r0
    4030:	00000011 	andeq	r0, r0, r1, lsl r0
    4034:	00000013 	andeq	r0, r0, r3, lsl r0
    4038:	00000008 	andeq	r0, r0, r8
    403c:	6ffffffa 	svcvs	0x00fffffa
    4040:	00000002 	andeq	r0, r0, r2
    4044:	00000006 	andeq	r0, r0, r6
    4048:	00000780 	andeq	r0, r0, r0, lsl #15
    404c:	0000000b 	andeq	r0, r0, fp
    4050:	00000010 	andeq	r0, r0, r0, lsl r0
    4054:	00000005 	andeq	r0, r0, r5
    4058:	00001540 	andeq	r1, r0, r0, asr #10
    405c:	0000000a 	andeq	r0, r0, sl
    4060:	00000fd7 	ldrdeq	r0, [r0], -r7
    4064:	00000004 	andeq	r0, r0, r4
    4068:	000000f4 	strdeq	r0, [r0], -r4
    406c:	00000001 	andeq	r0, r0, r1
    4070:	00000f83 	andeq	r0, r0, r3, lsl #31
    4074:	00000001 	andeq	r0, r0, r1
    4078:	00000f8d 	andeq	r0, r0, sp, lsl #31
    407c:	00000001 	andeq	r0, r0, r1
    4080:	00000f9a 	muleq	r0, sl, pc
    4084:	00000001 	andeq	r0, r0, r1
    4088:	00000fa4 	andeq	r0, r0, r4, lsr #31
    408c:	00000001 	andeq	r0, r0, r1
    4090:	00000fad 	andeq	r0, r0, sp, lsr #31
    4094:	00000001 	andeq	r0, r0, r1
    4098:	00000fb5 	strheq	r0, [r0], -r5
    409c:	00000001 	andeq	r0, r0, r1
    40a0:	00000fc2 	andeq	r0, r0, r2, asr #31
    40a4:	0000000e 	andeq	r0, r0, lr
    40a8:	00000fca 	andeq	r0, r0, sl, asr #31
    40ac:	00000019 	andeq	r0, r0, r9, lsl r0
    40b0:	00004000 	andeq	r4, r0, r0
    40b4:	0000001b 	andeq	r0, r0, fp, lsl r0
    40b8:	00000008 	andeq	r0, r0, r8
    40bc:	0000001a 	andeq	r0, r0, sl, lsl r0
    40c0:	00004008 	andeq	r4, r0, r8
    40c4:	0000001c 	andeq	r0, r0, ip, lsl r0
    40c8:	0000000c 	andeq	r0, r0, ip
    40cc:	00000016 	andeq	r0, r0, r6, lsl r0
    40d0:	00000000 	andeq	r0, r0, r0
    40d4:	00000010 	andeq	r0, r0, r0, lsl r0
    40d8:	00000000 	andeq	r0, r0, r0
    40dc:	0000001e 	andeq	r0, r0, lr, lsl r0
    40e0:	00000006 	andeq	r0, r0, r6
	...
    40ec:	0000001e 	andeq	r0, r0, lr, lsl r0
    40f0:	00000006 	andeq	r0, r0, r6
	...

Disassembly of section .got:

000040fc <.got>:
	...
    4108:	00002538 	andeq	r2, r0, r8, lsr r5
    410c:	00002538 	andeq	r2, r0, r8, lsr r5

Disassembly of section .bss:

00004110 <__dso_handle>:
	...

Disassembly of section .note.gnu.gold-version:

00000000 <.note.gnu.gold-version>:
   0:	00000004 	andeq	r0, r0, r4
   4:	00000008 	andeq	r0, r0, r8
   8:	00000004 	andeq	r0, r0, r4
   c:	00554e47 	subseq	r4, r5, r7, asr #28
  10:	646c6f67 	strbtvs	r6, [ip], #-3943	; 0xf67
  14:	392e3120 	stmdbcc	lr!, {r5, r8, ip, sp}

Disassembly of section .ARM.attributes:

00000000 <.ARM.attributes>:
   0:	00003141 	andeq	r3, r0, r1, asr #2
   4:	61656100 	cmnvs	r5, r0, lsl #2
   8:	01006962 	tsteq	r0, r2, ror #18
   c:	00000027 	andeq	r0, r0, r7, lsr #32
  10:	4d524105 	ldfmie	f4, [r2, #-20]	; 0xffffffec
  14:	00377620 	eorseq	r7, r7, r0, lsr #12
  18:	41070a06 	tstmi	r7, r6, lsl #20
  1c:	02090108 	andeq	r0, r9, #8, 2
  20:	010c030a 	tsteq	ip, sl, lsl #6
  24:	01140412 	tsteq	r4, r2, lsl r4
  28:	03170115 	tsteq	r7, #1073741829	; 0x40000005
  2c:	021a0118 	andseq	r0, sl, #24, 2
  30:	Address 0x00000030 is out of bounds.

